
libnvmmalloc.so:     file format elf64-x86-64


Disassembly of section .init:

0000000000001eb0 <_init>:
    1eb0:	48 83 ec 08          	sub    $0x8,%rsp
    1eb4:	48 8b 05 dd 70 20 00 	mov    0x2070dd(%rip),%rax        # 208f98 <__gmon_start__>
    1ebb:	48 85 c0             	test   %rax,%rax
    1ebe:	74 02                	je     1ec2 <_init+0x12>
    1ec0:	ff d0                	callq  *%rax
    1ec2:	48 83 c4 08          	add    $0x8,%rsp
    1ec6:	c3                   	retq   

Disassembly of section .plt:

0000000000001ed0 <.plt>:
    1ed0:	ff 35 32 71 20 00    	pushq  0x207132(%rip)        # 209008 <_GLOBAL_OFFSET_TABLE_+0x8>
    1ed6:	ff 25 34 71 20 00    	jmpq   *0x207134(%rip)        # 209010 <_GLOBAL_OFFSET_TABLE_+0x10>
    1edc:	0f 1f 40 00          	nopl   0x0(%rax)

0000000000001ee0 <free@plt>:
    1ee0:	ff 25 32 71 20 00    	jmpq   *0x207132(%rip)        # 209018 <free@GLIBC_2.2.5>
    1ee6:	68 00 00 00 00       	pushq  $0x0
    1eeb:	e9 e0 ff ff ff       	jmpq   1ed0 <.plt>

0000000000001ef0 <pthread_create@plt>:
    1ef0:	ff 25 2a 71 20 00    	jmpq   *0x20712a(%rip)        # 209020 <pthread_create@GLIBC_2.2.5>
    1ef6:	68 01 00 00 00       	pushq  $0x1
    1efb:	e9 d0 ff ff ff       	jmpq   1ed0 <.plt>

0000000000001f00 <tree_map@plt>:
    1f00:	ff 25 22 71 20 00    	jmpq   *0x207122(%rip)        # 209028 <tree_map@@Base+0x203008>
    1f06:	68 02 00 00 00       	pushq  $0x2
    1f0b:	e9 c0 ff ff ff       	jmpq   1ed0 <.plt>

0000000000001f10 <pthread_detach@plt>:
    1f10:	ff 25 1a 71 20 00    	jmpq   *0x20711a(%rip)        # 209030 <pthread_detach@GLIBC_2.2.5>
    1f16:	68 03 00 00 00       	pushq  $0x3
    1f1b:	e9 b0 ff ff ff       	jmpq   1ed0 <.plt>

0000000000001f20 <strncpy@plt>:
    1f20:	ff 25 12 71 20 00    	jmpq   *0x207112(%rip)        # 209038 <strncpy@GLIBC_2.2.5>
    1f26:	68 04 00 00 00       	pushq  $0x4
    1f2b:	e9 a0 ff ff ff       	jmpq   1ed0 <.plt>

0000000000001f30 <strncmp@plt>:
    1f30:	ff 25 0a 71 20 00    	jmpq   *0x20710a(%rip)        # 209040 <strncmp@GLIBC_2.2.5>
    1f36:	68 05 00 00 00       	pushq  $0x5
    1f3b:	e9 90 ff ff ff       	jmpq   1ed0 <.plt>

0000000000001f40 <tree_successor@plt>:
    1f40:	ff 25 02 71 20 00    	jmpq   *0x207102(%rip)        # 209048 <tree_successor@@Base+0x203168>
    1f46:	68 06 00 00 00       	pushq  $0x6
    1f4b:	e9 80 ff ff ff       	jmpq   1ed0 <.plt>

0000000000001f50 <mkdir@plt>:
    1f50:	ff 25 fa 70 20 00    	jmpq   *0x2070fa(%rip)        # 209050 <mkdir@GLIBC_2.2.5>
    1f56:	68 07 00 00 00       	pushq  $0x7
    1f5b:	e9 70 ff ff ff       	jmpq   1ed0 <.plt>

0000000000001f60 <puts@plt>:
    1f60:	ff 25 f2 70 20 00    	jmpq   *0x2070f2(%rip)        # 209058 <puts@GLIBC_2.2.5>
    1f66:	68 08 00 00 00       	pushq  $0x8
    1f6b:	e9 60 ff ff ff       	jmpq   1ed0 <.plt>

0000000000001f70 <arena_free@plt>:
    1f70:	ff 25 ea 70 20 00    	jmpq   *0x2070ea(%rip)        # 209060 <arena_free@@Base+0x205200>
    1f76:	68 09 00 00 00       	pushq  $0x9
    1f7b:	e9 50 ff ff ff       	jmpq   1ed0 <.plt>

0000000000001f80 <arena_create_block_header@plt>:
    1f80:	ff 25 e2 70 20 00    	jmpq   *0x2070e2(%rip)        # 209068 <arena_create_block_header@@Base+0x204cd8>
    1f86:	68 0a 00 00 00       	pushq  $0xa
    1f8b:	e9 40 ff ff ff       	jmpq   1ed0 <.plt>

0000000000001f90 <arena_create_run_header@plt>:
    1f90:	ff 25 da 70 20 00    	jmpq   *0x2070da(%rip)        # 209070 <arena_create_run_header@@Base+0x2052c0>
    1f96:	68 0b 00 00 00       	pushq  $0xb
    1f9b:	e9 30 ff ff ff       	jmpq   1ed0 <.plt>

0000000000001fa0 <recover_chunks@plt>:
    1fa0:	ff 25 d2 70 20 00    	jmpq   *0x2070d2(%rip)        # 209078 <recover_chunks@@Base+0x2067a8>
    1fa6:	68 0c 00 00 00       	pushq  $0xc
    1fab:	e9 20 ff ff ff       	jmpq   1ed0 <.plt>

0000000000001fb0 <arena_create_block@plt>:
    1fb0:	ff 25 ca 70 20 00    	jmpq   *0x2070ca(%rip)        # 209080 <arena_create_block@@Base+0x2055f0>
    1fb6:	68 0d 00 00 00       	pushq  $0xd
    1fbb:	e9 10 ff ff ff       	jmpq   1ed0 <.plt>

0000000000001fc0 <identify_usage@plt>:
    1fc0:	ff 25 c2 70 20 00    	jmpq   *0x2070c2(%rip)        # 209088 <identify_usage@@Base+0x206c88>
    1fc6:	68 0e 00 00 00       	pushq  $0xe
    1fcb:	e9 00 ff ff ff       	jmpq   1ed0 <.plt>

0000000000001fd0 <tree_del@plt>:
    1fd0:	ff 25 ba 70 20 00    	jmpq   *0x2070ba(%rip)        # 209090 <tree_del@@Base+0x202fe0>
    1fd6:	68 0f 00 00 00       	pushq  $0xf
    1fdb:	e9 f0 fe ff ff       	jmpq   1ed0 <.plt>

0000000000001fe0 <clwb_range@plt>:
    1fe0:	ff 25 b2 70 20 00    	jmpq   *0x2070b2(%rip)        # 209098 <clwb_range@@Base+0x206bd8>
    1fe6:	68 10 00 00 00       	pushq  $0x10
    1feb:	e9 e0 fe ff ff       	jmpq   1ed0 <.plt>

0000000000001ff0 <nvm_activate@plt>:
    1ff0:	ff 25 aa 70 20 00    	jmpq   *0x2070aa(%rip)        # 2090a0 <nvm_activate@@Base+0x203980>
    1ff6:	68 11 00 00 00       	pushq  $0x11
    1ffb:	e9 d0 fe ff ff       	jmpq   1ed0 <.plt>

0000000000002000 <strlen@plt>:
    2000:	ff 25 a2 70 20 00    	jmpq   *0x2070a2(%rip)        # 2090a8 <strlen@GLIBC_2.2.5>
    2006:	68 12 00 00 00       	pushq  $0x12
    200b:	e9 c0 fe ff ff       	jmpq   1ed0 <.plt>

0000000000002010 <mmap@plt>:
    2010:	ff 25 9a 70 20 00    	jmpq   *0x20709a(%rip)        # 2090b0 <mmap@GLIBC_2.2.5>
    2016:	68 13 00 00 00       	pushq  $0x13
    201b:	e9 b0 fe ff ff       	jmpq   1ed0 <.plt>

0000000000002020 <sfence@plt>:
    2020:	ff 25 92 70 20 00    	jmpq   *0x207092(%rip)        # 2090b8 <sfence@@Base+0x206bc8>
    2026:	68 14 00 00 00       	pushq  $0x14
    202b:	e9 a0 fe ff ff       	jmpq   1ed0 <.plt>

0000000000002030 <tree_max@plt>:
    2030:	ff 25 8a 70 20 00    	jmpq   *0x20708a(%rip)        # 2090c0 <tree_max@@Base+0x203210>
    2036:	68 15 00 00 00       	pushq  $0x15
    203b:	e9 90 fe ff ff       	jmpq   1ed0 <.plt>

0000000000002040 <printf@plt>:
    2040:	ff 25 82 70 20 00    	jmpq   *0x207082(%rip)        # 2090c8 <printf@GLIBC_2.2.5>
    2046:	68 16 00 00 00       	pushq  $0x16
    204b:	e9 80 fe ff ff       	jmpq   1ed0 <.plt>

0000000000002050 <nvm_reserve@plt>:
    2050:	ff 25 7a 70 20 00    	jmpq   *0x20707a(%rip)        # 2090d0 <nvm_reserve@@Base+0x203c40>
    2056:	68 17 00 00 00       	pushq  $0x17
    205b:	e9 70 fe ff ff       	jmpq   1ed0 <.plt>

0000000000002060 <tree_min@plt>:
    2060:	ff 25 72 70 20 00    	jmpq   *0x207072(%rip)        # 2090d8 <tree_min@@Base+0x203258>
    2066:	68 18 00 00 00       	pushq  $0x18
    206b:	e9 60 fe ff ff       	jmpq   1ed0 <.plt>

0000000000002070 <ot_init@plt>:
    2070:	ff 25 6a 70 20 00    	jmpq   *0x20706a(%rip)        # 2090e0 <ot_init@@Base+0x206500>
    2076:	68 19 00 00 00       	pushq  $0x19
    207b:	e9 50 fe ff ff       	jmpq   1ed0 <.plt>

0000000000002080 <__assert_fail@plt>:
    2080:	ff 25 62 70 20 00    	jmpq   *0x207062(%rip)        # 2090e8 <__assert_fail@GLIBC_2.2.5>
    2086:	68 1a 00 00 00       	pushq  $0x1a
    208b:	e9 40 fe ff ff       	jmpq   1ed0 <.plt>

0000000000002090 <open_existing_file@plt>:
    2090:	ff 25 5a 70 20 00    	jmpq   *0x20705a(%rip)        # 2090f0 <open_existing_file@@Base+0x206b20>
    2096:	68 1b 00 00 00       	pushq  $0x1b
    209b:	e9 30 fe ff ff       	jmpq   1ed0 <.plt>

00000000000020a0 <arena_teardown@plt>:
    20a0:	ff 25 52 70 20 00    	jmpq   *0x207052(%rip)        # 2090f8 <arena_teardown@@Base+0x204d38>
    20a6:	68 1c 00 00 00       	pushq  $0x1c
    20ab:	e9 20 fe ff ff       	jmpq   1ed0 <.plt>

00000000000020b0 <nvm_initialize_empty@plt>:
    20b0:	ff 25 4a 70 20 00    	jmpq   *0x20704a(%rip)        # 209100 <nvm_initialize_empty@@Base+0x204710>
    20b6:	68 1d 00 00 00       	pushq  $0x1d
    20bb:	e9 10 fe ff ff       	jmpq   1ed0 <.plt>

00000000000020c0 <close@plt>:
    20c0:	ff 25 42 70 20 00    	jmpq   *0x207042(%rip)        # 209108 <close@GLIBC_2.2.5>
    20c6:	68 1e 00 00 00       	pushq  $0x1e
    20cb:	e9 00 fe ff ff       	jmpq   1ed0 <.plt>

00000000000020d0 <clwb@plt>:
    20d0:	ff 25 3a 70 20 00    	jmpq   *0x20703a(%rip)        # 209110 <clwb@@Base+0x206c60>
    20d6:	68 1f 00 00 00       	pushq  $0x1f
    20db:	e9 f0 fd ff ff       	jmpq   1ed0 <.plt>

00000000000020e0 <nvm_fallocate@plt>:
    20e0:	ff 25 32 70 20 00    	jmpq   *0x207032(%rip)        # 209118 <nvm_fallocate@@Base+0x206b58>
    20e6:	68 20 00 00 00       	pushq  $0x20
    20eb:	e9 e0 fd ff ff       	jmpq   1ed0 <.plt>

00000000000020f0 <calloc@plt>:
    20f0:	ff 25 2a 70 20 00    	jmpq   *0x20702a(%rip)        # 209120 <calloc@GLIBC_2.2.5>
    20f6:	68 21 00 00 00       	pushq  $0x21
    20fb:	e9 d0 fd ff ff       	jmpq   1ed0 <.plt>

0000000000002100 <nvm_initialize_recovered@plt>:
    2100:	ff 25 22 70 20 00    	jmpq   *0x207022(%rip)        # 209128 <nvm_initialize_recovered@@Base+0x204538>
    2106:	68 22 00 00 00       	pushq  $0x22
    210b:	e9 c0 fd ff ff       	jmpq   1ed0 <.plt>

0000000000002110 <posix_fallocate@plt>:
    2110:	ff 25 1a 70 20 00    	jmpq   *0x20701a(%rip)        # 209130 <posix_fallocate@GLIBC_2.2.5>
    2116:	68 23 00 00 00       	pushq  $0x23
    211b:	e9 b0 fd ff ff       	jmpq   1ed0 <.plt>

0000000000002120 <ot_remove@plt>:
    2120:	ff 25 12 70 20 00    	jmpq   *0x207012(%rip)        # 209138 <ot_remove@@Base+0x205f48>
    2126:	68 24 00 00 00       	pushq  $0x24
    212b:	e9 a0 fd ff ff       	jmpq   1ed0 <.plt>

0000000000002130 <__xstat@plt>:
    2130:	ff 25 0a 70 20 00    	jmpq   *0x20700a(%rip)        # 209140 <__xstat@GLIBC_2.2.5>
    2136:	68 25 00 00 00       	pushq  $0x25
    213b:	e9 90 fd ff ff       	jmpq   1ed0 <.plt>

0000000000002140 <error_and_exit@plt>:
    2140:	ff 25 02 70 20 00    	jmpq   *0x207002(%rip)        # 209148 <error_and_exit@@Base+0x206c38>
    2146:	68 26 00 00 00       	pushq  $0x26
    214b:	e9 80 fd ff ff       	jmpq   1ed0 <.plt>

0000000000002150 <pthread_mutex_unlock@plt>:
    2150:	ff 25 fa 6f 20 00    	jmpq   *0x206ffa(%rip)        # 209150 <pthread_mutex_unlock@GLIBC_2.2.5>
    2156:	68 27 00 00 00       	pushq  $0x27
    215b:	e9 70 fd ff ff       	jmpq   1ed0 <.plt>

0000000000002160 <malloc@plt>:
    2160:	ff 25 f2 6f 20 00    	jmpq   *0x206ff2(%rip)        # 209158 <malloc@GLIBC_2.2.5>
    2166:	68 28 00 00 00       	pushq  $0x28
    216b:	e9 60 fd ff ff       	jmpq   1ed0 <.plt>

0000000000002170 <initialize_chunks@plt>:
    2170:	ff 25 ea 6f 20 00    	jmpq   *0x206fea(%rip)        # 209160 <initialize_chunks@@Base+0x206970>
    2176:	68 29 00 00 00       	pushq  $0x29
    217b:	e9 50 fd ff ff       	jmpq   1ed0 <.plt>

0000000000002180 <nvm_free@plt>:
    2180:	ff 25 e2 6f 20 00    	jmpq   *0x206fe2(%rip)        # 209168 <nvm_free@@Base+0x204b08>
    2186:	68 2a 00 00 00       	pushq  $0x2a
    218b:	e9 40 fd ff ff       	jmpq   1ed0 <.plt>

0000000000002190 <ot_recover@plt>:
    2190:	ff 25 da 6f 20 00    	jmpq   *0x206fda(%rip)        # 209170 <ot_recover@@Base+0x2064e0>
    2196:	68 2b 00 00 00       	pushq  $0x2b
    219b:	e9 30 fd ff ff       	jmpq   1ed0 <.plt>

00000000000021a0 <arena_init@plt>:
    21a0:	ff 25 d2 6f 20 00    	jmpq   *0x206fd2(%rip)        # 209178 <arena_init@@Base+0x205b88>
    21a6:	68 2c 00 00 00       	pushq  $0x2c
    21ab:	e9 20 fd ff ff       	jmpq   1ed0 <.plt>

00000000000021b0 <munmap@plt>:
    21b0:	ff 25 ca 6f 20 00    	jmpq   *0x206fca(%rip)        # 209180 <munmap@GLIBC_2.2.5>
    21b6:	68 2d 00 00 00       	pushq  $0x2d
    21bb:	e9 10 fd ff ff       	jmpq   1ed0 <.plt>

00000000000021c0 <open@plt>:
    21c0:	ff 25 c2 6f 20 00    	jmpq   *0x206fc2(%rip)        # 209188 <open@GLIBC_2.2.5>
    21c6:	68 2e 00 00 00       	pushq  $0x2e
    21cb:	e9 00 fd ff ff       	jmpq   1ed0 <.plt>

00000000000021d0 <vfprintf@plt>:
    21d0:	ff 25 ba 6f 20 00    	jmpq   *0x206fba(%rip)        # 209190 <vfprintf@GLIBC_2.2.5>
    21d6:	68 2f 00 00 00       	pushq  $0x2f
    21db:	e9 f0 fc ff ff       	jmpq   1ed0 <.plt>

00000000000021e0 <arena_allocate@plt>:
    21e0:	ff 25 b2 6f 20 00    	jmpq   *0x206fb2(%rip)        # 209198 <arena_allocate@@Base+0x205598>
    21e6:	68 30 00 00 00       	pushq  $0x30
    21eb:	e9 e0 fc ff ff       	jmpq   1ed0 <.plt>

00000000000021f0 <activate_more_chunks@plt>:
    21f0:	ff 25 aa 6f 20 00    	jmpq   *0x206faa(%rip)        # 2091a0 <activate_more_chunks@@Base+0x2067c0>
    21f6:	68 31 00 00 00       	pushq  $0x31
    21fb:	e9 d0 fc ff ff       	jmpq   1ed0 <.plt>

0000000000002200 <arena_add_chunk@plt>:
    2200:	ff 25 a2 6f 20 00    	jmpq   *0x206fa2(%rip)        # 2091a8 <arena_add_chunk@@Base+0x205a98>
    2206:	68 32 00 00 00       	pushq  $0x32
    220b:	e9 c0 fc ff ff       	jmpq   1ed0 <.plt>

0000000000002210 <sprintf@plt>:
    2210:	ff 25 9a 6f 20 00    	jmpq   *0x206f9a(%rip)        # 2091b0 <sprintf@GLIBC_2.2.5>
    2216:	68 33 00 00 00       	pushq  $0x33
    221b:	e9 b0 fc ff ff       	jmpq   1ed0 <.plt>

0000000000002220 <exit@plt>:
    2220:	ff 25 92 6f 20 00    	jmpq   *0x206f92(%rip)        # 2091b8 <exit@GLIBC_2.2.5>
    2226:	68 34 00 00 00       	pushq  $0x34
    222b:	e9 a0 fc ff ff       	jmpq   1ed0 <.plt>

0000000000002230 <initalize_nvm_space@plt>:
    2230:	ff 25 8a 6f 20 00    	jmpq   *0x206f8a(%rip)        # 2091c0 <initalize_nvm_space@@Base+0x206ae0>
    2236:	68 35 00 00 00       	pushq  $0x35
    223b:	e9 90 fc ff ff       	jmpq   1ed0 <.plt>

0000000000002240 <arena_create_run@plt>:
    2240:	ff 25 82 6f 20 00    	jmpq   *0x206f82(%rip)        # 2091c8 <arena_create_run@@Base+0x205988>
    2246:	68 36 00 00 00       	pushq  $0x36
    224b:	e9 80 fc ff ff       	jmpq   1ed0 <.plt>

0000000000002250 <nvm_reserve_huge@plt>:
    2250:	ff 25 7a 6f 20 00    	jmpq   *0x206f7a(%rip)        # 2091d0 <nvm_reserve_huge@@Base+0x203d80>
    2256:	68 37 00 00 00       	pushq  $0x37
    225b:	e9 70 fc ff ff       	jmpq   1ed0 <.plt>

0000000000002260 <ot_insert@plt>:
    2260:	ff 25 72 6f 20 00    	jmpq   *0x206f72(%rip)        # 2091d8 <ot_insert@@Base+0x2061a8>
    2266:	68 38 00 00 00       	pushq  $0x38
    226b:	e9 60 fc ff ff       	jmpq   1ed0 <.plt>

0000000000002270 <pthread_mutex_init@plt>:
    2270:	ff 25 6a 6f 20 00    	jmpq   *0x206f6a(%rip)        # 2091e0 <pthread_mutex_init@GLIBC_2.2.5>
    2276:	68 39 00 00 00       	pushq  $0x39
    227b:	e9 50 fc ff ff       	jmpq   1ed0 <.plt>

0000000000002280 <log_activate@plt>:
    2280:	ff 25 62 6f 20 00    	jmpq   *0x206f62(%rip)        # 2091e8 <log_activate@@Base+0x203b18>
    2286:	68 3a 00 00 00       	pushq  $0x3a
    228b:	e9 40 fc ff ff       	jmpq   1ed0 <.plt>

0000000000002290 <teardown_nvm_space@plt>:
    2290:	ff 25 5a 6f 20 00    	jmpq   *0x206f5a(%rip)        # 2091f0 <teardown_nvm_space@@Base+0x2066c0>
    2296:	68 3b 00 00 00       	pushq  $0x3b
    229b:	e9 30 fc ff ff       	jmpq   1ed0 <.plt>

00000000000022a0 <pthread_mutex_lock@plt>:
    22a0:	ff 25 52 6f 20 00    	jmpq   *0x206f52(%rip)        # 2091f8 <pthread_mutex_lock@GLIBC_2.2.5>
    22a6:	68 3c 00 00 00       	pushq  $0x3c
    22ab:	e9 20 fc ff ff       	jmpq   1ed0 <.plt>

00000000000022b0 <ot_get@plt>:
    22b0:	ff 25 4a 6f 20 00    	jmpq   *0x206f4a(%rip)        # 209200 <ot_get@@Base+0x206270>
    22b6:	68 3d 00 00 00       	pushq  $0x3d
    22bb:	e9 10 fc ff ff       	jmpq   1ed0 <.plt>

00000000000022c0 <tree_add@plt>:
    22c0:	ff 25 42 6f 20 00    	jmpq   *0x206f42(%rip)        # 209208 <tree_add@@Base+0x203268>
    22c6:	68 3e 00 00 00       	pushq  $0x3e
    22cb:	e9 00 fc ff ff       	jmpq   1ed0 <.plt>

00000000000022d0 <ot_teardown@plt>:
    22d0:	ff 25 3a 6f 20 00    	jmpq   *0x206f3a(%rip)        # 209210 <ot_teardown@@Base+0x205ec0>
    22d6:	68 3f 00 00 00       	pushq  $0x3f
    22db:	e9 f0 fb ff ff       	jmpq   1ed0 <.plt>

00000000000022e0 <open_empty_or_create_file@plt>:
    22e0:	ff 25 32 6f 20 00    	jmpq   *0x206f32(%rip)        # 209218 <open_empty_or_create_file@@Base+0x206bd8>
    22e6:	68 40 00 00 00       	pushq  $0x40
    22eb:	e9 e0 fb ff ff       	jmpq   1ed0 <.plt>

Disassembly of section .plt.got:

00000000000022f0 <__cxa_finalize@plt>:
    22f0:	ff 25 f2 6c 20 00    	jmpq   *0x206cf2(%rip)        # 208fe8 <__cxa_finalize@GLIBC_2.2.5>
    22f6:	66 90                	xchg   %ax,%ax

Disassembly of section .text:

0000000000002300 <deregister_tm_clones>:
    2300:	48 8d 3d 31 6f 20 00 	lea    0x206f31(%rip),%rdi        # 209238 <_edata>
    2307:	55                   	push   %rbp
    2308:	48 8d 05 29 6f 20 00 	lea    0x206f29(%rip),%rax        # 209238 <_edata>
    230f:	48 39 f8             	cmp    %rdi,%rax
    2312:	48 89 e5             	mov    %rsp,%rbp
    2315:	74 19                	je     2330 <deregister_tm_clones+0x30>
    2317:	48 8b 05 4a 6c 20 00 	mov    0x206c4a(%rip),%rax        # 208f68 <_ITM_deregisterTMCloneTable>
    231e:	48 85 c0             	test   %rax,%rax
    2321:	74 0d                	je     2330 <deregister_tm_clones+0x30>
    2323:	5d                   	pop    %rbp
    2324:	ff e0                	jmpq   *%rax
    2326:	66 2e 0f 1f 84 00 00 	nopw   %cs:0x0(%rax,%rax,1)
    232d:	00 00 00 
    2330:	5d                   	pop    %rbp
    2331:	c3                   	retq   
    2332:	0f 1f 40 00          	nopl   0x0(%rax)
    2336:	66 2e 0f 1f 84 00 00 	nopw   %cs:0x0(%rax,%rax,1)
    233d:	00 00 00 

0000000000002340 <register_tm_clones>:
    2340:	48 8d 3d f1 6e 20 00 	lea    0x206ef1(%rip),%rdi        # 209238 <_edata>
    2347:	48 8d 35 ea 6e 20 00 	lea    0x206eea(%rip),%rsi        # 209238 <_edata>
    234e:	55                   	push   %rbp
    234f:	48 29 fe             	sub    %rdi,%rsi
    2352:	48 89 e5             	mov    %rsp,%rbp
    2355:	48 c1 fe 03          	sar    $0x3,%rsi
    2359:	48 89 f0             	mov    %rsi,%rax
    235c:	48 c1 e8 3f          	shr    $0x3f,%rax
    2360:	48 01 c6             	add    %rax,%rsi
    2363:	48 d1 fe             	sar    %rsi
    2366:	74 18                	je     2380 <register_tm_clones+0x40>
    2368:	48 8b 05 71 6c 20 00 	mov    0x206c71(%rip),%rax        # 208fe0 <_ITM_registerTMCloneTable>
    236f:	48 85 c0             	test   %rax,%rax
    2372:	74 0c                	je     2380 <register_tm_clones+0x40>
    2374:	5d                   	pop    %rbp
    2375:	ff e0                	jmpq   *%rax
    2377:	66 0f 1f 84 00 00 00 	nopw   0x0(%rax,%rax,1)
    237e:	00 00 
    2380:	5d                   	pop    %rbp
    2381:	c3                   	retq   
    2382:	0f 1f 40 00          	nopl   0x0(%rax)
    2386:	66 2e 0f 1f 84 00 00 	nopw   %cs:0x0(%rax,%rax,1)
    238d:	00 00 00 

0000000000002390 <__do_global_dtors_aux>:
    2390:	80 3d a9 6e 20 00 00 	cmpb   $0x0,0x206ea9(%rip)        # 209240 <completed.6984>
    2397:	75 2f                	jne    23c8 <__do_global_dtors_aux+0x38>
    2399:	48 83 3d 47 6c 20 00 	cmpq   $0x0,0x206c47(%rip)        # 208fe8 <__cxa_finalize@GLIBC_2.2.5>
    23a0:	00 
    23a1:	55                   	push   %rbp
    23a2:	48 89 e5             	mov    %rsp,%rbp
    23a5:	74 0c                	je     23b3 <__do_global_dtors_aux+0x23>
    23a7:	48 8d 3d da 69 20 00 	lea    0x2069da(%rip),%rdi        # 208d88 <__dso_handle>
    23ae:	e8 3d ff ff ff       	callq  22f0 <__cxa_finalize@plt>
    23b3:	e8 48 ff ff ff       	callq  2300 <deregister_tm_clones>
    23b8:	c6 05 81 6e 20 00 01 	movb   $0x1,0x206e81(%rip)        # 209240 <completed.6984>
    23bf:	5d                   	pop    %rbp
    23c0:	c3                   	retq   
    23c1:	0f 1f 80 00 00 00 00 	nopl   0x0(%rax)
    23c8:	f3 c3                	repz retq 
    23ca:	66 0f 1f 44 00 00    	nopw   0x0(%rax,%rax,1)

00000000000023d0 <frame_dummy>:
    23d0:	55                   	push   %rbp
    23d1:	48 89 e5             	mov    %rsp,%rbp
    23d4:	5d                   	pop    %rbp
    23d5:	e9 66 ff ff ff       	jmpq   2340 <register_tm_clones>
    23da:	66 0f 1f 44 00 00    	nopw   0x0(%rax,%rax,1)

00000000000023e0 <round_up>:
    23e0:	48 85 f6             	test   %rsi,%rsi
    23e3:	74 15                	je     23fa <round_up+0x1a>
    23e5:	48 89 f8             	mov    %rdi,%rax
    23e8:	31 d2                	xor    %edx,%edx
    23ea:	48 f7 f6             	div    %rsi
    23ed:	48 01 fe             	add    %rdi,%rsi
    23f0:	48 29 d6             	sub    %rdx,%rsi
    23f3:	48 85 d2             	test   %rdx,%rdx
    23f6:	48 0f 45 fe          	cmovne %rsi,%rdi
    23fa:	48 89 f8             	mov    %rdi,%rax
    23fd:	c3                   	retq   
    23fe:	66 90                	xchg   %ax,%ax

0000000000002400 <identify_usage>:
    2400:	48 8b 05 79 6b 20 00 	mov    0x206b79(%rip),%rax        # 208f80 <nvm_start@@Base-0xa68>
    2407:	48 89 f9             	mov    %rdi,%rcx
    240a:	48 2b 08             	sub    (%rax),%rcx
    240d:	48 89 ca             	mov    %rcx,%rdx
    2410:	48 89 c8             	mov    %rcx,%rax
    2413:	81 e2 ff ff ff 7f    	and    $0x7fffffff,%edx
    2419:	48 83 fa 40          	cmp    $0x40,%rdx
    241d:	74 41                	je     2460 <identify_usage+0x60>
    241f:	25 ff 0f 00 00       	and    $0xfff,%eax
    2424:	48 89 c2             	mov    %rax,%rdx
    2427:	b8 40 00 00 00       	mov    $0x40,%eax
    242c:	48 83 fa 40          	cmp    $0x40,%rdx
    2430:	77 23                	ja     2455 <identify_usage+0x55>
    2432:	75 1c                	jne    2450 <identify_usage+0x50>
    2434:	0f b6 57 c0          	movzbl -0x40(%rdi),%edx
    2438:	83 e2 d0             	and    $0xffffffd0,%edx
    243b:	80 fa 10             	cmp    $0x10,%dl
    243e:	ba 30 00 00 00       	mov    $0x30,%edx
    2443:	0f 44 c2             	cmove  %edx,%eax
    2446:	c3                   	retq   
    2447:	66 0f 1f 84 00 00 00 	nopw   0x0(%rax,%rax,1)
    244e:	00 00 
    2450:	b8 ff ff ff ff       	mov    $0xffffffff,%eax
    2455:	f3 c3                	repz retq 
    2457:	66 0f 1f 84 00 00 00 	nopw   0x0(%rax,%rax,1)
    245e:	00 00 
    2460:	b8 50 00 00 00       	mov    $0x50,%eax
    2465:	c3                   	retq   
    2466:	66 2e 0f 1f 84 00 00 	nopw   %cs:0x0(%rax,%rax,1)
    246d:	00 00 00 

0000000000002470 <clflush>:
    2470:	48 89 7c 24 f8       	mov    %rdi,-0x8(%rsp)
    2475:	0f ae 7c 24 f8       	clflush -0x8(%rsp)
    247a:	c3                   	retq   
    247b:	0f 1f 44 00 00       	nopl   0x0(%rax,%rax,1)

0000000000002480 <clflush_range>:
    2480:	48 89 f8             	mov    %rdi,%rax
    2483:	48 01 fe             	add    %rdi,%rsi
    2486:	48 83 e0 c0          	and    $0xffffffffffffffc0,%rax
    248a:	48 39 f0             	cmp    %rsi,%rax
    248d:	73 14                	jae    24a3 <clflush_range+0x23>
    248f:	90                   	nop
    2490:	48 89 44 24 f8       	mov    %rax,-0x8(%rsp)
    2495:	0f ae 7c 24 f8       	clflush -0x8(%rsp)
    249a:	48 83 c0 40          	add    $0x40,%rax
    249e:	48 39 f0             	cmp    %rsi,%rax
    24a1:	72 ed                	jb     2490 <clflush_range+0x10>
    24a3:	f3 c3                	repz retq 
    24a5:	90                   	nop
    24a6:	66 2e 0f 1f 84 00 00 	nopw   %cs:0x0(%rax,%rax,1)
    24ad:	00 00 00 

00000000000024b0 <clwb>:
    24b0:	48 89 7c 24 f8       	mov    %rdi,-0x8(%rsp)
    24b5:	66 0f ae 74 24 f8    	clwb   -0x8(%rsp)
    24bb:	c3                   	retq   
    24bc:	0f 1f 40 00          	nopl   0x0(%rax)

00000000000024c0 <clwb_range>:
    24c0:	48 89 f8             	mov    %rdi,%rax
    24c3:	48 01 fe             	add    %rdi,%rsi
    24c6:	48 83 e0 c0          	and    $0xffffffffffffffc0,%rax
    24ca:	48 39 f0             	cmp    %rsi,%rax
    24cd:	73 15                	jae    24e4 <clwb_range+0x24>
    24cf:	90                   	nop
    24d0:	48 89 44 24 f8       	mov    %rax,-0x8(%rsp)
    24d5:	66 0f ae 74 24 f8    	clwb   -0x8(%rsp)
    24db:	48 83 c0 40          	add    $0x40,%rax
    24df:	48 39 f0             	cmp    %rsi,%rax
    24e2:	72 ec                	jb     24d0 <clwb_range+0x10>
    24e4:	f3 c3                	repz retq 
    24e6:	66 2e 0f 1f 84 00 00 	nopw   %cs:0x0(%rax,%rax,1)
    24ed:	00 00 00 

00000000000024f0 <sfence>:
    24f0:	0f ae f8             	sfence 
    24f3:	c3                   	retq   
    24f4:	66 90                	xchg   %ax,%ax
    24f6:	66 2e 0f 1f 84 00 00 	nopw   %cs:0x0(%rax,%rax,1)
    24fd:	00 00 00 

0000000000002500 <mfence>:
    2500:	0f ae f0             	mfence 
    2503:	c3                   	retq   
    2504:	66 2e 0f 1f 84 00 00 	nopw   %cs:0x0(%rax,%rax,1)
    250b:	00 00 00 
    250e:	66 90                	xchg   %ax,%ax

0000000000002510 <error_and_exit>:
    2510:	48 81 ec d8 00 00 00 	sub    $0xd8,%rsp
    2517:	84 c0                	test   %al,%al
    2519:	48 89 74 24 28       	mov    %rsi,0x28(%rsp)
    251e:	48 89 54 24 30       	mov    %rdx,0x30(%rsp)
    2523:	48 89 4c 24 38       	mov    %rcx,0x38(%rsp)
    2528:	4c 89 44 24 40       	mov    %r8,0x40(%rsp)
    252d:	4c 89 4c 24 48       	mov    %r9,0x48(%rsp)
    2532:	74 37                	je     256b <error_and_exit+0x5b>
    2534:	0f 29 44 24 50       	movaps %xmm0,0x50(%rsp)
    2539:	0f 29 4c 24 60       	movaps %xmm1,0x60(%rsp)
    253e:	0f 29 54 24 70       	movaps %xmm2,0x70(%rsp)
    2543:	0f 29 9c 24 80 00 00 	movaps %xmm3,0x80(%rsp)
    254a:	00 
    254b:	0f 29 a4 24 90 00 00 	movaps %xmm4,0x90(%rsp)
    2552:	00 
    2553:	0f 29 ac 24 a0 00 00 	movaps %xmm5,0xa0(%rsp)
    255a:	00 
    255b:	0f 29 b4 24 b0 00 00 	movaps %xmm6,0xb0(%rsp)
    2562:	00 
    2563:	0f 29 bc 24 c0 00 00 	movaps %xmm7,0xc0(%rsp)
    256a:	00 
    256b:	48 8d 84 24 e0 00 00 	lea    0xe0(%rsp),%rax
    2572:	00 
    2573:	48 89 fe             	mov    %rdi,%rsi
    2576:	48 8d 54 24 08       	lea    0x8(%rsp),%rdx
    257b:	48 89 44 24 10       	mov    %rax,0x10(%rsp)
    2580:	48 8d 44 24 20       	lea    0x20(%rsp),%rax
    2585:	c7 44 24 08 08 00 00 	movl   $0x8,0x8(%rsp)
    258c:	00 
    258d:	c7 44 24 0c 30 00 00 	movl   $0x30,0xc(%rsp)
    2594:	00 
    2595:	48 89 44 24 18       	mov    %rax,0x18(%rsp)
    259a:	48 8b 05 57 6a 20 00 	mov    0x206a57(%rip),%rax        # 208ff8 <stderr@GLIBC_2.2.5>
    25a1:	48 8b 38             	mov    (%rax),%rdi
    25a4:	e8 27 fc ff ff       	callq  21d0 <vfprintf@plt>
    25a9:	bf ff ff ff ff       	mov    $0xffffffff,%edi
    25ae:	e8 6d fc ff ff       	callq  2220 <exit@plt>
    25b3:	0f 1f 00             	nopl   (%rax)
    25b6:	66 2e 0f 1f 84 00 00 	nopw   %cs:0x0(%rax,%rax,1)
    25bd:	00 00 00 

00000000000025c0 <nvm_fallocate>:
    25c0:	e9 4b fb ff ff       	jmpq   2110 <posix_fallocate@plt>
    25c5:	90                   	nop
    25c6:	66 2e 0f 1f 84 00 00 	nopw   %cs:0x0(%rax,%rax,1)
    25cd:	00 00 00 

00000000000025d0 <open_existing_file>:
    25d0:	55                   	push   %rbp
    25d1:	53                   	push   %rbx
    25d2:	48 89 fe             	mov    %rdi,%rsi
    25d5:	48 89 fb             	mov    %rdi,%rbx
    25d8:	bf 01 00 00 00       	mov    $0x1,%edi
    25dd:	48 81 ec 98 00 00 00 	sub    $0x98,%rsp
    25e4:	48 89 e2             	mov    %rsp,%rdx
    25e7:	e8 44 fb ff ff       	callq  2130 <__xstat@plt>
    25ec:	85 c0                	test   %eax,%eax
    25ee:	78 48                	js     2638 <open_existing_file+0x68>
    25f0:	31 c0                	xor    %eax,%eax
    25f2:	be 02 00 00 00       	mov    $0x2,%esi
    25f7:	48 89 df             	mov    %rbx,%rdi
    25fa:	e8 c1 fb ff ff       	callq  21c0 <open@plt>
    25ff:	85 c0                	test   %eax,%eax
    2601:	89 c5                	mov    %eax,%ebp
    2603:	78 13                	js     2618 <open_existing_file+0x48>
    2605:	48 81 c4 98 00 00 00 	add    $0x98,%rsp
    260c:	89 e8                	mov    %ebp,%eax
    260e:	5b                   	pop    %rbx
    260f:	5d                   	pop    %rbp
    2610:	c3                   	retq   
    2611:	0f 1f 80 00 00 00 00 	nopl   0x0(%rax)
    2618:	48 8d 3d 81 4e 00 00 	lea    0x4e81(%rip),%rdi        # 74a0 <_fini+0x10>
    261f:	48 89 de             	mov    %rbx,%rsi
    2622:	31 c0                	xor    %eax,%eax
    2624:	e8 17 fb ff ff       	callq  2140 <error_and_exit@plt>
    2629:	48 81 c4 98 00 00 00 	add    $0x98,%rsp
    2630:	89 e8                	mov    %ebp,%eax
    2632:	5b                   	pop    %rbx
    2633:	5d                   	pop    %rbp
    2634:	c3                   	retq   
    2635:	0f 1f 00             	nopl   (%rax)
    2638:	bd ff ff ff ff       	mov    $0xffffffff,%ebp
    263d:	eb c6                	jmp    2605 <open_existing_file+0x35>
    263f:	90                   	nop

0000000000002640 <open_empty_or_create_file>:
    2640:	55                   	push   %rbp
    2641:	53                   	push   %rbx
    2642:	48 89 fe             	mov    %rdi,%rsi
    2645:	48 89 fb             	mov    %rdi,%rbx
    2648:	bf 01 00 00 00       	mov    $0x1,%edi
    264d:	48 81 ec 98 00 00 00 	sub    $0x98,%rsp
    2654:	48 89 e2             	mov    %rsp,%rdx
    2657:	e8 d4 fa ff ff       	callq  2130 <__xstat@plt>
    265c:	85 c0                	test   %eax,%eax
    265e:	78 28                	js     2688 <open_empty_or_create_file+0x48>
    2660:	31 c0                	xor    %eax,%eax
    2662:	be 02 02 00 00       	mov    $0x202,%esi
    2667:	48 89 df             	mov    %rbx,%rdi
    266a:	e8 51 fb ff ff       	callq  21c0 <open@plt>
    266f:	85 c0                	test   %eax,%eax
    2671:	89 c5                	mov    %eax,%ebp
    2673:	78 43                	js     26b8 <open_empty_or_create_file+0x78>
    2675:	48 81 c4 98 00 00 00 	add    $0x98,%rsp
    267c:	89 e8                	mov    %ebp,%eax
    267e:	5b                   	pop    %rbx
    267f:	5d                   	pop    %rbp
    2680:	c3                   	retq   
    2681:	0f 1f 80 00 00 00 00 	nopl   0x0(%rax)
    2688:	31 c0                	xor    %eax,%eax
    268a:	ba b6 01 00 00       	mov    $0x1b6,%edx
    268f:	be 42 00 00 00       	mov    $0x42,%esi
    2694:	48 89 df             	mov    %rbx,%rdi
    2697:	e8 24 fb ff ff       	callq  21c0 <open@plt>
    269c:	85 c0                	test   %eax,%eax
    269e:	89 c5                	mov    %eax,%ebp
    26a0:	79 d3                	jns    2675 <open_empty_or_create_file+0x35>
    26a2:	48 8d 3d 0f 4e 00 00 	lea    0x4e0f(%rip),%rdi        # 74b8 <_fini+0x28>
    26a9:	48 89 de             	mov    %rbx,%rsi
    26ac:	31 c0                	xor    %eax,%eax
    26ae:	e8 8d fa ff ff       	callq  2140 <error_and_exit@plt>
    26b3:	eb c0                	jmp    2675 <open_empty_or_create_file+0x35>
    26b5:	0f 1f 00             	nopl   (%rax)
    26b8:	48 8d 3d e1 4d 00 00 	lea    0x4de1(%rip),%rdi        # 74a0 <_fini+0x10>
    26bf:	48 89 de             	mov    %rbx,%rsi
    26c2:	31 c0                	xor    %eax,%eax
    26c4:	e8 77 fa ff ff       	callq  2140 <error_and_exit@plt>
    26c9:	48 81 c4 98 00 00 00 	add    $0x98,%rsp
    26d0:	89 e8                	mov    %ebp,%eax
    26d2:	5b                   	pop    %rbx
    26d3:	5d                   	pop    %rbp
    26d4:	c3                   	retq   
    26d5:	90                   	nop
    26d6:	66 2e 0f 1f 84 00 00 	nopw   %cs:0x0(%rax,%rax,1)
    26dd:	00 00 00 

00000000000026e0 <initalize_nvm_space>:
    26e0:	41 54                	push   %r12
    26e2:	55                   	push   %rbp
    26e3:	45 31 c9             	xor    %r9d,%r9d
    26e6:	53                   	push   %rbx
    26e7:	31 d2                	xor    %edx,%edx
    26e9:	48 89 fb             	mov    %rdi,%rbx
    26ec:	48 89 f5             	mov    %rsi,%rbp
    26ef:	41 b8 ff ff ff ff    	mov    $0xffffffff,%r8d
    26f5:	b9 21 40 00 00       	mov    $0x4021,%ecx
    26fa:	48 81 ec 90 00 00 00 	sub    $0x90,%rsp
    2701:	48 bf 00 00 00 00 00 	movabs $0x10000000000,%rdi
    2708:	01 00 00 
    270b:	48 89 35 ae 6b 20 00 	mov    %rsi,0x206bae(%rip)        # 2092c0 <max_chunks>
    2712:	48 c1 e6 1f          	shl    $0x1f,%rsi
    2716:	e8 f5 f8 ff ff       	callq  2010 <mmap@plt>
    271b:	48 83 f8 ff          	cmp    $0xffffffffffffffff,%rax
    271f:	48 89 05 a2 6b 20 00 	mov    %rax,0x206ba2(%rip)        # 2092c8 <chunk_region_start>
    2726:	0f 84 a4 00 00 00    	je     27d0 <initalize_nvm_space+0xf0>
    272c:	48 89 df             	mov    %rbx,%rdi
    272f:	e8 cc f8 ff ff       	callq  2000 <strlen@plt>
    2734:	48 89 e7             	mov    %rsp,%rdi
    2737:	48 89 c5             	mov    %rax,%rbp
    273a:	b9 12 00 00 00       	mov    $0x12,%ecx
    273f:	31 c0                	xor    %eax,%eax
    2741:	48 89 e2             	mov    %rsp,%rdx
    2744:	48 89 de             	mov    %rbx,%rsi
    2747:	f3 48 ab             	rep stos %rax,%es:(%rdi)
    274a:	bf 01 00 00 00       	mov    $0x1,%edi
    274f:	e8 dc f9 ff ff       	callq  2130 <__xstat@plt>
    2754:	83 f8 ff             	cmp    $0xffffffff,%eax
    2757:	74 67                	je     27c0 <initalize_nvm_space+0xe0>
    2759:	48 8d 7d 09          	lea    0x9(%rbp),%rdi
    275d:	e8 fe f9 ff ff       	callq  2160 <malloc@plt>
    2762:	48 8d 7d 06          	lea    0x6(%rbp),%rdi
    2766:	49 89 c4             	mov    %rax,%r12
    2769:	48 89 05 48 6b 20 00 	mov    %rax,0x206b48(%rip)        # 2092b8 <backing_file_path>
    2770:	e8 eb f9 ff ff       	callq  2160 <malloc@plt>
    2775:	48 8d 35 56 4d 00 00 	lea    0x4d56(%rip),%rsi        # 74d2 <_fini+0x42>
    277c:	48 89 da             	mov    %rbx,%rdx
    277f:	4c 89 e7             	mov    %r12,%rdi
    2782:	48 89 05 27 6b 20 00 	mov    %rax,0x206b27(%rip)        # 2092b0 <meta_file_path>
    2789:	31 c0                	xor    %eax,%eax
    278b:	e8 80 fa ff ff       	callq  2210 <sprintf@plt>
    2790:	48 8b 3d 19 6b 20 00 	mov    0x206b19(%rip),%rdi        # 2092b0 <meta_file_path>
    2797:	48 8d 35 3f 4d 00 00 	lea    0x4d3f(%rip),%rsi        # 74dd <_fini+0x4d>
    279e:	48 89 da             	mov    %rbx,%rdx
    27a1:	31 c0                	xor    %eax,%eax
    27a3:	e8 68 fa ff ff       	callq  2210 <sprintf@plt>
    27a8:	48 8b 05 19 6b 20 00 	mov    0x206b19(%rip),%rax        # 2092c8 <chunk_region_start>
    27af:	48 81 c4 90 00 00 00 	add    $0x90,%rsp
    27b6:	5b                   	pop    %rbx
    27b7:	5d                   	pop    %rbp
    27b8:	41 5c                	pop    %r12
    27ba:	c3                   	retq   
    27bb:	0f 1f 44 00 00       	nopl   0x0(%rax,%rax,1)
    27c0:	be ff 01 00 00       	mov    $0x1ff,%esi
    27c5:	48 89 df             	mov    %rbx,%rdi
    27c8:	e8 83 f7 ff ff       	callq  1f50 <mkdir@plt>
    27cd:	eb 8a                	jmp    2759 <initalize_nvm_space+0x79>
    27cf:	90                   	nop
    27d0:	48 8d 3d b1 4d 00 00 	lea    0x4db1(%rip),%rdi        # 7588 <_fini+0xf8>
    27d7:	48 89 ee             	mov    %rbp,%rsi
    27da:	31 c0                	xor    %eax,%eax
    27dc:	e8 5f f9 ff ff       	callq  2140 <error_and_exit@plt>
    27e1:	e9 46 ff ff ff       	jmpq   272c <initalize_nvm_space+0x4c>
    27e6:	66 2e 0f 1f 84 00 00 	nopw   %cs:0x0(%rax,%rax,1)
    27ed:	00 00 00 

00000000000027f0 <initialize_chunks>:
    27f0:	48 83 ec 08          	sub    $0x8,%rsp
    27f4:	48 8b 3d bd 6a 20 00 	mov    0x206abd(%rip),%rdi        # 2092b8 <backing_file_path>
    27fb:	e8 e0 fa ff ff       	callq  22e0 <open_empty_or_create_file@plt>
    2800:	31 f6                	xor    %esi,%esi
    2802:	ba 00 00 10 00       	mov    $0x100000,%edx
    2807:	89 c7                	mov    %eax,%edi
    2809:	89 05 15 6a 20 00    	mov    %eax,0x206a15(%rip)        # 209224 <backing_file_fd>
    280f:	e8 cc f8 ff ff       	callq  20e0 <nvm_fallocate@plt>
    2814:	85 c0                	test   %eax,%eax
    2816:	75 60                	jne    2878 <initialize_chunks+0x88>
    2818:	48 8b 3d 91 6a 20 00 	mov    0x206a91(%rip),%rdi        # 2092b0 <meta_file_path>
    281f:	e8 bc fa ff ff       	callq  22e0 <open_empty_or_create_file@plt>
    2824:	31 f6                	xor    %esi,%esi
    2826:	ba 00 10 00 00       	mov    $0x1000,%edx
    282b:	89 c7                	mov    %eax,%edi
    282d:	89 05 ed 69 20 00    	mov    %eax,0x2069ed(%rip)        # 209220 <meta_file_fd>
    2833:	e8 a8 f8 ff ff       	callq  20e0 <nvm_fallocate@plt>
    2838:	85 c0                	test   %eax,%eax
    283a:	75 54                	jne    2890 <initialize_chunks+0xa0>
    283c:	44 8b 05 dd 69 20 00 	mov    0x2069dd(%rip),%r8d        # 209220 <meta_file_fd>
    2843:	45 31 c9             	xor    %r9d,%r9d
    2846:	ba 03 00 00 00       	mov    $0x3,%edx
    284b:	31 ff                	xor    %edi,%edi
    284d:	b9 03 40 08 00       	mov    $0x84003,%ecx
    2852:	be 00 10 00 00       	mov    $0x1000,%esi
    2857:	e8 b4 f7 ff ff       	callq  2010 <mmap@plt>
    285c:	48 8b 15 3d 67 20 00 	mov    0x20673d(%rip),%rdx        # 208fa0 <meta_info@@Base-0x2c0>
    2863:	48 83 f8 ff          	cmp    $0xffffffffffffffff,%rax
    2867:	48 89 02             	mov    %rax,(%rdx)
    286a:	74 44                	je     28b0 <initialize_chunks+0xc0>
    286c:	48 83 c4 08          	add    $0x8,%rsp
    2870:	c3                   	retq   
    2871:	0f 1f 80 00 00 00 00 	nopl   0x0(%rax)
    2878:	48 8b 35 39 6a 20 00 	mov    0x206a39(%rip),%rsi        # 2092b8 <backing_file_path>
    287f:	48 8d 3d 32 4d 00 00 	lea    0x4d32(%rip),%rdi        # 75b8 <_fini+0x128>
    2886:	31 c0                	xor    %eax,%eax
    2888:	e8 b3 f8 ff ff       	callq  2140 <error_and_exit@plt>
    288d:	eb 89                	jmp    2818 <initialize_chunks+0x28>
    288f:	90                   	nop
    2890:	48 8b 35 19 6a 20 00 	mov    0x206a19(%rip),%rsi        # 2092b0 <meta_file_path>
    2897:	48 8d 3d 1a 4d 00 00 	lea    0x4d1a(%rip),%rdi        # 75b8 <_fini+0x128>
    289e:	31 c0                	xor    %eax,%eax
    28a0:	e8 9b f8 ff ff       	callq  2140 <error_and_exit@plt>
    28a5:	eb 95                	jmp    283c <initialize_chunks+0x4c>
    28a7:	66 0f 1f 84 00 00 00 	nopw   0x0(%rax,%rax,1)
    28ae:	00 00 
    28b0:	48 8d 3d 2e 4c 00 00 	lea    0x4c2e(%rip),%rdi        # 74e5 <_fini+0x55>
    28b7:	31 c0                	xor    %eax,%eax
    28b9:	48 83 c4 08          	add    $0x8,%rsp
    28bd:	e9 7e f8 ff ff       	jmpq   2140 <error_and_exit@plt>
    28c2:	0f 1f 40 00          	nopl   0x0(%rax)
    28c6:	66 2e 0f 1f 84 00 00 	nopw   %cs:0x0(%rax,%rax,1)
    28cd:	00 00 00 

00000000000028d0 <recover_chunks>:
    28d0:	41 55                	push   %r13
    28d2:	41 54                	push   %r12
    28d4:	bf 01 00 00 00       	mov    $0x1,%edi
    28d9:	55                   	push   %rbp
    28da:	53                   	push   %rbx
    28db:	31 db                	xor    %ebx,%ebx
    28dd:	48 81 ec 98 00 00 00 	sub    $0x98,%rsp
    28e4:	48 8b 2d cd 69 20 00 	mov    0x2069cd(%rip),%rbp        # 2092b8 <backing_file_path>
    28eb:	4c 8b 25 d6 69 20 00 	mov    0x2069d6(%rip),%r12        # 2092c8 <chunk_region_start>
    28f2:	48 89 e2             	mov    %rsp,%rdx
    28f5:	4c 8b 2d ac 69 20 00 	mov    0x2069ac(%rip),%r13        # 2092a8 <next_chunk>
    28fc:	48 89 ee             	mov    %rbp,%rsi
    28ff:	e8 2c f8 ff ff       	callq  2130 <__xstat@plt>
    2904:	85 c0                	test   %eax,%eax
    2906:	75 0a                	jne    2912 <recover_chunks+0x42>
    2908:	48 8b 5c 24 30       	mov    0x30(%rsp),%rbx
    290d:	48 85 db             	test   %rbx,%rbx
    2910:	75 16                	jne    2928 <recover_chunks+0x58>
    2912:	48 81 c4 98 00 00 00 	add    $0x98,%rsp
    2919:	48 89 d8             	mov    %rbx,%rax
    291c:	5b                   	pop    %rbx
    291d:	5d                   	pop    %rbp
    291e:	41 5c                	pop    %r12
    2920:	41 5d                	pop    %r13
    2922:	c3                   	retq   
    2923:	0f 1f 44 00 00       	nopl   0x0(%rax,%rax,1)
    2928:	48 89 d8             	mov    %rbx,%rax
    292b:	48 89 ef             	mov    %rbp,%rdi
    292e:	49 c1 e5 1f          	shl    $0x1f,%r13
    2932:	48 c1 e8 1f          	shr    $0x1f,%rax
    2936:	48 89 05 6b 69 20 00 	mov    %rax,0x20696b(%rip)        # 2092a8 <next_chunk>
    293d:	e8 4e f7 ff ff       	callq  2090 <open_existing_file@plt>
    2942:	4b 8d 3c 2c          	lea    (%r12,%r13,1),%rdi
    2946:	45 31 c9             	xor    %r9d,%r9d
    2949:	41 89 c0             	mov    %eax,%r8d
    294c:	b9 13 40 08 00       	mov    $0x84013,%ecx
    2951:	ba 03 00 00 00       	mov    $0x3,%edx
    2956:	48 89 de             	mov    %rbx,%rsi
    2959:	89 05 c5 68 20 00    	mov    %eax,0x2068c5(%rip)        # 209224 <backing_file_fd>
    295f:	e8 ac f6 ff ff       	callq  2010 <mmap@plt>
    2964:	48 83 f8 ff          	cmp    $0xffffffffffffffff,%rax
    2968:	74 4e                	je     29b8 <recover_chunks+0xe8>
    296a:	48 8b 3d 3f 69 20 00 	mov    0x20693f(%rip),%rdi        # 2092b0 <meta_file_path>
    2971:	e8 1a f7 ff ff       	callq  2090 <open_existing_file@plt>
    2976:	45 31 c9             	xor    %r9d,%r9d
    2979:	ba 03 00 00 00       	mov    $0x3,%edx
    297e:	31 ff                	xor    %edi,%edi
    2980:	41 89 c0             	mov    %eax,%r8d
    2983:	b9 03 40 08 00       	mov    $0x84003,%ecx
    2988:	be 00 10 00 00       	mov    $0x1000,%esi
    298d:	89 05 8d 68 20 00    	mov    %eax,0x20688d(%rip)        # 209220 <meta_file_fd>
    2993:	e8 78 f6 ff ff       	callq  2010 <mmap@plt>
    2998:	48 8b 15 01 66 20 00 	mov    0x206601(%rip),%rdx        # 208fa0 <meta_info@@Base-0x2c0>
    299f:	48 83 f8 ff          	cmp    $0xffffffffffffffff,%rax
    29a3:	48 89 02             	mov    %rax,(%rdx)
    29a6:	74 28                	je     29d0 <recover_chunks+0x100>
    29a8:	48 8b 1d f9 68 20 00 	mov    0x2068f9(%rip),%rbx        # 2092a8 <next_chunk>
    29af:	e9 5e ff ff ff       	jmpq   2912 <recover_chunks+0x42>
    29b4:	0f 1f 40 00          	nopl   0x0(%rax)
    29b8:	48 8b 35 f9 68 20 00 	mov    0x2068f9(%rip),%rsi        # 2092b8 <backing_file_path>
    29bf:	48 8d 3d 38 4b 00 00 	lea    0x4b38(%rip),%rdi        # 74fe <_fini+0x6e>
    29c6:	31 c0                	xor    %eax,%eax
    29c8:	e8 73 f7 ff ff       	callq  2140 <error_and_exit@plt>
    29cd:	eb 9b                	jmp    296a <recover_chunks+0x9a>
    29cf:	90                   	nop
    29d0:	48 8d 3d 0e 4b 00 00 	lea    0x4b0e(%rip),%rdi        # 74e5 <_fini+0x55>
    29d7:	31 c0                	xor    %eax,%eax
    29d9:	e8 62 f7 ff ff       	callq  2140 <error_and_exit@plt>
    29de:	eb c8                	jmp    29a8 <recover_chunks+0xd8>

00000000000029e0 <activate_more_chunks>:
    29e0:	41 55                	push   %r13
    29e2:	41 54                	push   %r12
    29e4:	48 89 fe             	mov    %rdi,%rsi
    29e7:	55                   	push   %rbp
    29e8:	53                   	push   %rbx
    29e9:	48 89 fb             	mov    %rdi,%rbx
    29ec:	48 8d 3d 1e 4b 00 00 	lea    0x4b1e(%rip),%rdi        # 7511 <_fini+0x81>
    29f3:	31 c0                	xor    %eax,%eax
    29f5:	48 83 ec 08          	sub    $0x8,%rsp
    29f9:	e8 42 f6 ff ff       	callq  2040 <printf@plt>
    29fe:	48 8d 3d 7b 68 20 00 	lea    0x20687b(%rip),%rdi        # 209280 <chunk_mtx>
    2a05:	e8 96 f8 ff ff       	callq  22a0 <pthread_mutex_lock@plt>
    2a0a:	48 8b 35 97 68 20 00 	mov    0x206897(%rip),%rsi        # 2092a8 <next_chunk>
    2a11:	48 8d 04 1e          	lea    (%rsi,%rbx,1),%rax
    2a15:	48 3b 05 a4 68 20 00 	cmp    0x2068a4(%rip),%rax        # 2092c0 <max_chunks>
    2a1c:	0f 87 86 00 00 00    	ja     2aa8 <activate_more_chunks+0xc8>
    2a22:	4c 8b 25 9f 68 20 00 	mov    0x20689f(%rip),%r12        # 2092c8 <chunk_region_start>
    2a29:	49 89 dd             	mov    %rbx,%r13
    2a2c:	8b 3d f2 67 20 00    	mov    0x2067f2(%rip),%edi        # 209224 <backing_file_fd>
    2a32:	49 c1 e5 1f          	shl    $0x1f,%r13
    2a36:	48 c1 e6 1f          	shl    $0x1f,%rsi
    2a3a:	4c 89 ea             	mov    %r13,%rdx
    2a3d:	49 01 f4             	add    %rsi,%r12
    2a40:	e8 9b f6 ff ff       	callq  20e0 <nvm_fallocate@plt>
    2a45:	85 c0                	test   %eax,%eax
    2a47:	0f 85 83 00 00 00    	jne    2ad0 <activate_more_chunks+0xf0>
    2a4d:	48 8b 2d 54 68 20 00 	mov    0x206854(%rip),%rbp        # 2092a8 <next_chunk>
    2a54:	44 8b 05 c9 67 20 00 	mov    0x2067c9(%rip),%r8d        # 209224 <backing_file_fd>
    2a5b:	b9 13 00 08 00       	mov    $0x80013,%ecx
    2a60:	ba 03 00 00 00       	mov    $0x3,%edx
    2a65:	4c 89 ee             	mov    %r13,%rsi
    2a68:	4c 89 e7             	mov    %r12,%rdi
    2a6b:	49 89 e9             	mov    %rbp,%r9
    2a6e:	49 c1 e1 1f          	shl    $0x1f,%r9
    2a72:	e8 99 f5 ff ff       	callq  2010 <mmap@plt>
    2a77:	48 83 f8 ff          	cmp    $0xffffffffffffffff,%rax
    2a7b:	0f 84 7f 00 00 00    	je     2b00 <activate_more_chunks+0x120>
    2a81:	48 8d 3d f8 67 20 00 	lea    0x2067f8(%rip),%rdi        # 209280 <chunk_mtx>
    2a88:	48 01 eb             	add    %rbp,%rbx
    2a8b:	48 89 1d 16 68 20 00 	mov    %rbx,0x206816(%rip)        # 2092a8 <next_chunk>
    2a92:	e8 b9 f6 ff ff       	callq  2150 <pthread_mutex_unlock@plt>
    2a97:	48 83 c4 08          	add    $0x8,%rsp
    2a9b:	4c 89 e0             	mov    %r12,%rax
    2a9e:	5b                   	pop    %rbx
    2a9f:	5d                   	pop    %rbp
    2aa0:	41 5c                	pop    %r12
    2aa2:	41 5d                	pop    %r13
    2aa4:	c3                   	retq   
    2aa5:	0f 1f 00             	nopl   (%rax)
    2aa8:	48 8d 3d d1 67 20 00 	lea    0x2067d1(%rip),%rdi        # 209280 <chunk_mtx>
    2aaf:	e8 9c f6 ff ff       	callq  2150 <pthread_mutex_unlock@plt>
    2ab4:	48 8d 3d 71 4a 00 00 	lea    0x4a71(%rip),%rdi        # 752c <_fini+0x9c>
    2abb:	31 c0                	xor    %eax,%eax
    2abd:	e8 7e f6 ff ff       	callq  2140 <error_and_exit@plt>
    2ac2:	48 8b 35 df 67 20 00 	mov    0x2067df(%rip),%rsi        # 2092a8 <next_chunk>
    2ac9:	e9 54 ff ff ff       	jmpq   2a22 <activate_more_chunks+0x42>
    2ace:	66 90                	xchg   %ax,%ax
    2ad0:	48 8d 3d 70 4a 00 00 	lea    0x4a70(%rip),%rdi        # 7547 <_fini+0xb7>
    2ad7:	31 c0                	xor    %eax,%eax
    2ad9:	e8 62 f5 ff ff       	callq  2040 <printf@plt>
    2ade:	48 8b 35 d3 67 20 00 	mov    0x2067d3(%rip),%rsi        # 2092b8 <backing_file_path>
    2ae5:	48 8d 3d f4 4a 00 00 	lea    0x4af4(%rip),%rdi        # 75e0 <_fini+0x150>
    2aec:	31 c0                	xor    %eax,%eax
    2aee:	e8 4d f6 ff ff       	callq  2140 <error_and_exit@plt>
    2af3:	e9 55 ff ff ff       	jmpq   2a4d <activate_more_chunks+0x6d>
    2af8:	0f 1f 84 00 00 00 00 	nopl   0x0(%rax,%rax,1)
    2aff:	00 
    2b00:	48 8d 3d 50 4a 00 00 	lea    0x4a50(%rip),%rdi        # 7557 <_fini+0xc7>
    2b07:	e8 54 f4 ff ff       	callq  1f60 <puts@plt>
    2b0c:	48 8d 3d 59 4a 00 00 	lea    0x4a59(%rip),%rdi        # 756c <_fini+0xdc>
    2b13:	31 c0                	xor    %eax,%eax
    2b15:	e8 26 f6 ff ff       	callq  2140 <error_and_exit@plt>
    2b1a:	48 8b 2d 87 67 20 00 	mov    0x206787(%rip),%rbp        # 2092a8 <next_chunk>
    2b21:	e9 5b ff ff ff       	jmpq   2a81 <activate_more_chunks+0xa1>
    2b26:	66 2e 0f 1f 84 00 00 	nopw   %cs:0x0(%rax,%rax,1)
    2b2d:	00 00 00 

0000000000002b30 <teardown_nvm_space>:
    2b30:	48 8b 35 89 67 20 00 	mov    0x206789(%rip),%rsi        # 2092c0 <max_chunks>
    2b37:	48 8b 3d 8a 67 20 00 	mov    0x20678a(%rip),%rdi        # 2092c8 <chunk_region_start>
    2b3e:	53                   	push   %rbx
    2b3f:	48 c1 e6 1f          	shl    $0x1f,%rsi
    2b43:	e8 68 f6 ff ff       	callq  21b0 <munmap@plt>
    2b48:	48 8b 1d 51 64 20 00 	mov    0x206451(%rip),%rbx        # 208fa0 <meta_info@@Base-0x2c0>
    2b4f:	be 00 10 00 00       	mov    $0x1000,%esi
    2b54:	48 c7 05 69 67 20 00 	movq   $0x0,0x206769(%rip)        # 2092c8 <chunk_region_start>
    2b5b:	00 00 00 00 
    2b5f:	48 8b 3b             	mov    (%rbx),%rdi
    2b62:	e8 49 f6 ff ff       	callq  21b0 <munmap@plt>
    2b67:	8b 3d b7 66 20 00    	mov    0x2066b7(%rip),%edi        # 209224 <backing_file_fd>
    2b6d:	48 c7 03 00 00 00 00 	movq   $0x0,(%rbx)
    2b74:	e8 47 f5 ff ff       	callq  20c0 <close@plt>
    2b79:	8b 3d a1 66 20 00    	mov    0x2066a1(%rip),%edi        # 209220 <meta_file_fd>
    2b7f:	c7 05 9b 66 20 00 ff 	movl   $0xffffffff,0x20669b(%rip)        # 209224 <backing_file_fd>
    2b86:	ff ff ff 
    2b89:	e8 32 f5 ff ff       	callq  20c0 <close@plt>
    2b8e:	48 8b 3d 23 67 20 00 	mov    0x206723(%rip),%rdi        # 2092b8 <backing_file_path>
    2b95:	c7 05 81 66 20 00 ff 	movl   $0xffffffff,0x206681(%rip)        # 209220 <meta_file_fd>
    2b9c:	ff ff ff 
    2b9f:	e8 3c f3 ff ff       	callq  1ee0 <free@plt>
    2ba4:	48 8b 3d 05 67 20 00 	mov    0x206705(%rip),%rdi        # 2092b0 <meta_file_path>
    2bab:	48 c7 05 02 67 20 00 	movq   $0x0,0x206702(%rip)        # 2092b8 <backing_file_path>
    2bb2:	00 00 00 00 
    2bb6:	e8 25 f3 ff ff       	callq  1ee0 <free@plt>
    2bbb:	48 c7 05 ea 66 20 00 	movq   $0x0,0x2066ea(%rip)        # 2092b0 <meta_file_path>
    2bc2:	00 00 00 00 
    2bc6:	48 c7 05 ef 66 20 00 	movq   $0x0,0x2066ef(%rip)        # 2092c0 <max_chunks>
    2bcd:	00 00 00 00 
    2bd1:	48 c7 05 cc 66 20 00 	movq   $0x0,0x2066cc(%rip)        # 2092a8 <next_chunk>
    2bd8:	00 00 00 00 
    2bdc:	5b                   	pop    %rbx
    2bdd:	c3                   	retq   
    2bde:	66 90                	xchg   %ax,%ax

0000000000002be0 <ot_init>:
    2be0:	55                   	push   %rbp
    2be1:	53                   	push   %rbx
    2be2:	48 89 fb             	mov    %rdi,%rbx
    2be5:	bf 18 00 00 00       	mov    $0x18,%edi
    2bea:	48 83 ec 08          	sub    $0x8,%rsp
    2bee:	e8 6d f5 ff ff       	callq  2160 <malloc@plt>
    2bf3:	48 85 c0             	test   %rax,%rax
    2bf6:	48 89 c5             	mov    %rax,%rbp
    2bf9:	74 28                	je     2c23 <ot_init+0x43>
    2bfb:	be 08 00 00 00       	mov    $0x8,%esi
    2c00:	bf 80 00 00 00       	mov    $0x80,%edi
    2c05:	e8 e6 f4 ff ff       	callq  20f0 <calloc@plt>
    2c0a:	48 85 c0             	test   %rax,%rax
    2c0d:	48 89 45 08          	mov    %rax,0x8(%rbp)
    2c11:	74 64                	je     2c77 <ot_init+0x97>
    2c13:	48 c7 45 00 7f 00 00 	movq   $0x7f,0x0(%rbp)
    2c1a:	00 
    2c1b:	48 c7 45 10 00 00 00 	movq   $0x0,0x10(%rbp)
    2c22:	00 
    2c23:	48 8b 15 c6 66 20 00 	mov    0x2066c6(%rip),%rdx        # 2092f0 <total_slots_available>
    2c2a:	48 89 2d c7 66 20 00 	mov    %rbp,0x2066c7(%rip)        # 2092f8 <ot_hashmap>
    2c31:	48 89 1d a8 66 20 00 	mov    %rbx,0x2066a8(%rip)        # 2092e0 <first_chunk>
    2c38:	48 8d 42 3f          	lea    0x3f(%rdx),%rax
    2c3c:	48 89 05 ad 66 20 00 	mov    %rax,0x2066ad(%rip)        # 2092f0 <total_slots_available>
    2c43:	48 8b 43 38          	mov    0x38(%rbx),%rax
    2c47:	48 85 c0             	test   %rax,%rax
    2c4a:	74 24                	je     2c70 <ot_init+0x90>
    2c4c:	48 83 c2 7e          	add    $0x7e,%rdx
    2c50:	eb 09                	jmp    2c5b <ot_init+0x7b>
    2c52:	66 0f 1f 44 00 00    	nopw   0x0(%rax,%rax,1)
    2c58:	48 89 ca             	mov    %rcx,%rdx
    2c5b:	48 8b 44 03 38       	mov    0x38(%rbx,%rax,1),%rax
    2c60:	48 8d 4a 3f          	lea    0x3f(%rdx),%rcx
    2c64:	48 85 c0             	test   %rax,%rax
    2c67:	75 ef                	jne    2c58 <ot_init+0x78>
    2c69:	48 89 15 80 66 20 00 	mov    %rdx,0x206680(%rip)        # 2092f0 <total_slots_available>
    2c70:	48 83 c4 08          	add    $0x8,%rsp
    2c74:	5b                   	pop    %rbx
    2c75:	5d                   	pop    %rbp
    2c76:	c3                   	retq   
    2c77:	48 89 ef             	mov    %rbp,%rdi
    2c7a:	31 ed                	xor    %ebp,%ebp
    2c7c:	e8 5f f2 ff ff       	callq  1ee0 <free@plt>
    2c81:	eb a0                	jmp    2c23 <ot_init+0x43>
    2c83:	0f 1f 00             	nopl   (%rax)
    2c86:	66 2e 0f 1f 84 00 00 	nopw   %cs:0x0(%rax,%rax,1)
    2c8d:	00 00 00 

0000000000002c90 <ot_recover>:
    2c90:	41 57                	push   %r15
    2c92:	41 56                	push   %r14
    2c94:	45 31 f6             	xor    %r14d,%r14d
    2c97:	41 55                	push   %r13
    2c99:	41 54                	push   %r12
    2c9b:	45 31 ed             	xor    %r13d,%r13d
    2c9e:	55                   	push   %rbp
    2c9f:	53                   	push   %rbx
    2ca0:	48 8d 2d 71 66 20 00 	lea    0x206671(%rip),%rbp        # 209318 <slot_buffer_next_idx+0x8>
    2ca7:	48 83 ec 28          	sub    $0x28,%rsp
    2cab:	48 8b 05 2e 66 20 00 	mov    0x20662e(%rip),%rax        # 2092e0 <first_chunk>
    2cb2:	48 89 7c 24 10       	mov    %rdi,0x10(%rsp)
    2cb7:	48 89 44 24 18       	mov    %rax,0x18(%rsp)
    2cbc:	0f 1f 40 00          	nopl   0x0(%rax)
    2cc0:	4c 8d 78 40          	lea    0x40(%rax),%r15
    2cc4:	49 8d 5d 3f          	lea    0x3f(%r13),%rbx
    2cc8:	eb 13                	jmp    2cdd <ot_recover+0x4d>
    2cca:	66 0f 1f 44 00 00    	nopw   0x0(%rax,%rax,1)
    2cd0:	49 83 c5 01          	add    $0x1,%r13
    2cd4:	49 83 c7 40          	add    $0x40,%r15
    2cd8:	49 39 dd             	cmp    %rbx,%r13
    2cdb:	74 6b                	je     2d48 <ot_recover+0xb8>
    2cdd:	41 0f b6 07          	movzbl (%r15),%eax
    2ce1:	3c 02                	cmp    $0x2,%al
    2ce3:	0f 84 af 00 00 00    	je     2d98 <ot_recover+0x108>
    2ce9:	3c 01                	cmp    $0x1,%al
    2ceb:	75 e3                	jne    2cd0 <ot_recover+0x40>
    2ced:	4c 8b 64 24 10       	mov    0x10(%rsp),%r12
    2cf2:	4d 03 67 38          	add    0x38(%r15),%r12
    2cf6:	4c 89 e7             	mov    %r12,%rdi
    2cf9:	e8 c2 f2 ff ff       	callq  1fc0 <identify_usage@plt>
    2cfe:	3c 50                	cmp    $0x50,%al
    2d00:	74 6e                	je     2d70 <ot_recover+0xe0>
    2d02:	3c 30                	cmp    $0x30,%al
    2d04:	74 6a                	je     2d70 <ot_recover+0xe0>
    2d06:	3c 40                	cmp    $0x40,%al
    2d08:	0f 84 f2 01 00 00    	je     2f00 <ot_recover+0x270>
    2d0e:	66 0f ef c0          	pxor   %xmm0,%xmm0
    2d12:	31 c0                	xor    %eax,%eax
    2d14:	49 83 c5 01          	add    $0x1,%r13
    2d18:	41 0f 11 07          	movups %xmm0,(%r15)
    2d1c:	41 0f 11 47 10       	movups %xmm0,0x10(%r15)
    2d21:	41 0f 11 47 20       	movups %xmm0,0x20(%r15)
    2d26:	41 0f 11 47 30       	movups %xmm0,0x30(%r15)
    2d2b:	e8 f0 f2 ff ff       	callq  2020 <sfence@plt>
    2d30:	4c 89 ff             	mov    %r15,%rdi
    2d33:	49 83 c7 40          	add    $0x40,%r15
    2d37:	e8 94 f3 ff ff       	callq  20d0 <clwb@plt>
    2d3c:	49 39 dd             	cmp    %rbx,%r13
    2d3f:	75 9c                	jne    2cdd <ot_recover+0x4d>
    2d41:	0f 1f 80 00 00 00 00 	nopl   0x0(%rax)
    2d48:	48 8b 44 24 18       	mov    0x18(%rsp),%rax
    2d4d:	48 8b 40 38          	mov    0x38(%rax),%rax
    2d51:	48 85 c0             	test   %rax,%rax
    2d54:	0f 84 17 02 00 00    	je     2f71 <ot_recover+0x2e1>
    2d5a:	48 03 05 7f 65 20 00 	add    0x20657f(%rip),%rax        # 2092e0 <first_chunk>
    2d61:	48 89 44 24 18       	mov    %rax,0x18(%rsp)
    2d66:	e9 55 ff ff ff       	jmpq   2cc0 <ot_recover+0x30>
    2d6b:	0f 1f 44 00 00       	nopl   0x0(%rax,%rax,1)
    2d70:	41 0f b6 44 24 c0    	movzbl -0x40(%r12),%eax
    2d76:	8d 50 fe             	lea    -0x2(%rax),%edx
    2d79:	81 e2 fd 00 00 00    	and    $0xfd,%edx
    2d7f:	74 04                	je     2d85 <ot_recover+0xf5>
    2d81:	3c 07                	cmp    $0x7,%al
    2d83:	75 89                	jne    2d0e <ot_recover+0x7e>
    2d85:	41 c6 07 02          	movb   $0x2,(%r15)
    2d89:	31 c0                	xor    %eax,%eax
    2d8b:	e8 90 f2 ff ff       	callq  2020 <sfence@plt>
    2d90:	4c 89 ff             	mov    %r15,%rdi
    2d93:	e8 38 f3 ff ff       	callq  20d0 <clwb@plt>
    2d98:	bf 50 00 00 00       	mov    $0x50,%edi
    2d9d:	e8 be f3 ff ff       	callq  2160 <malloc@plt>
    2da2:	f3 41 0f 6f 47 01    	movdqu 0x1(%r15),%xmm0
    2da8:	49 89 c4             	mov    %rax,%r12
    2dab:	45 89 f1             	mov    %r14d,%r9d
    2dae:	41 83 c6 01          	add    $0x1,%r14d
    2db2:	0f 11 00             	movups %xmm0,(%rax)
    2db5:	f3 41 0f 6f 47 11    	movdqu 0x11(%r15),%xmm0
    2dbb:	0f 11 40 10          	movups %xmm0,0x10(%rax)
    2dbf:	f3 41 0f 6f 47 21    	movdqu 0x21(%r15),%xmm0
    2dc5:	0f 11 40 20          	movups %xmm0,0x20(%rax)
    2dc9:	41 8b 4f 31          	mov    0x31(%r15),%ecx
    2dcd:	89 48 30             	mov    %ecx,0x30(%rax)
    2dd0:	41 0f b7 47 35       	movzwl 0x35(%r15),%eax
    2dd5:	41 0f b7 ce          	movzwl %r14w,%ecx
    2dd9:	4d 89 6c 24 38       	mov    %r13,0x38(%r12)
    2dde:	66 41 89 44 24 34    	mov    %ax,0x34(%r12)
    2de4:	49 8b 47 38          	mov    0x38(%r15),%rax
    2de8:	48 03 05 f1 64 20 00 	add    0x2064f1(%rip),%rax        # 2092e0 <first_chunk>
    2def:	4c 39 e9             	cmp    %r13,%rcx
    2df2:	4d 89 7c 24 48       	mov    %r15,0x48(%r12)
    2df7:	49 89 44 24 40       	mov    %rax,0x40(%r12)
    2dfc:	73 62                	jae    2e60 <ot_recover+0x1d0>
    2dfe:	48 8b 3d 0b 65 20 00 	mov    0x20650b(%rip),%rdi        # 209310 <slot_buffer_next_idx>
    2e05:	4c 8b 05 1c 64 20 00 	mov    0x20641c(%rip),%r8        # 209228 <slot_buffer_tail_idx>
    2e0c:	48 8d 47 01          	lea    0x1(%rdi),%rax
    2e10:	49 29 f8             	sub    %rdi,%r8
    2e13:	0f b7 3d e6 64 20 00 	movzwl 0x2064e6(%rip),%edi        # 209300 <slot_buffer_n_free>
    2e1a:	44 29 cf             	sub    %r9d,%edi
    2e1d:	0f 1f 00             	nopl   (%rax)
    2e20:	46 8d 0c 37          	lea    (%rdi,%r14,1),%r9d
    2e24:	41 83 c6 01          	add    $0x1,%r14d
    2e28:	48 89 4c c5 00       	mov    %rcx,0x0(%rbp,%rax,8)
    2e2d:	41 0f b7 ce          	movzwl %r14w,%ecx
    2e31:	49 89 c3             	mov    %rax,%r11
    2e34:	4d 8d 14 00          	lea    (%r8,%rax,1),%r10
    2e38:	48 83 c0 01          	add    $0x1,%rax
    2e3c:	4c 39 e9             	cmp    %r13,%rcx
    2e3f:	72 df                	jb     2e20 <ot_recover+0x190>
    2e41:	4c 89 1d c8 64 20 00 	mov    %r11,0x2064c8(%rip)        # 209310 <slot_buffer_next_idx>
    2e48:	4c 89 15 d9 63 20 00 	mov    %r10,0x2063d9(%rip)        # 209228 <slot_buffer_tail_idx>
    2e4f:	66 44 89 0d a9 64 20 	mov    %r9w,0x2064a9(%rip)        # 209300 <slot_buffer_n_free>
    2e56:	00 
    2e57:	66 0f 1f 84 00 00 00 	nopw   0x0(%rax,%rax,1)
    2e5e:	00 00 
    2e60:	49 0f be 04 24       	movsbq (%r12),%rax
    2e65:	4c 8b 05 8c 64 20 00 	mov    0x20648c(%rip),%r8        # 2092f8 <ot_hashmap>
    2e6c:	49 8d 7c 24 01       	lea    0x1(%r12),%rdi
    2e71:	41 be 05 15 00 00    	mov    $0x1505,%r14d
    2e77:	84 c0                	test   %al,%al
    2e79:	74 1f                	je     2e9a <ot_recover+0x20a>
    2e7b:	0f 1f 44 00 00       	nopl   0x0(%rax,%rax,1)
    2e80:	4c 89 f1             	mov    %r14,%rcx
    2e83:	48 83 c7 01          	add    $0x1,%rdi
    2e87:	48 c1 e1 05          	shl    $0x5,%rcx
    2e8b:	48 01 c8             	add    %rcx,%rax
    2e8e:	49 01 c6             	add    %rax,%r14
    2e91:	48 0f be 47 ff       	movsbq -0x1(%rdi),%rax
    2e96:	84 c0                	test   %al,%al
    2e98:	75 e6                	jne    2e80 <ot_recover+0x1f0>
    2e9a:	bf 20 00 00 00       	mov    $0x20,%edi
    2e9f:	4d 23 30             	and    (%r8),%r14
    2ea2:	4c 89 44 24 08       	mov    %r8,0x8(%rsp)
    2ea7:	e8 b4 f2 ff ff       	callq  2160 <malloc@plt>
    2eac:	48 85 c0             	test   %rax,%rax
    2eaf:	4c 8b 44 24 08       	mov    0x8(%rsp),%r8
    2eb4:	74 2a                	je     2ee0 <ot_recover+0x250>
    2eb6:	49 8b 48 08          	mov    0x8(%r8),%rcx
    2eba:	4a 8d 0c f1          	lea    (%rcx,%r14,8),%rcx
    2ebe:	4d 89 ee             	mov    %r13,%r14
    2ec1:	48 8b 39             	mov    (%rcx),%rdi
    2ec4:	48 c7 00 00 00 00 00 	movq   $0x0,(%rax)
    2ecb:	4c 89 60 10          	mov    %r12,0x10(%rax)
    2ecf:	48 89 78 08          	mov    %rdi,0x8(%rax)
    2ed3:	48 89 01             	mov    %rax,(%rcx)
    2ed6:	4c 89 60 18          	mov    %r12,0x18(%rax)
    2eda:	e9 f1 fd ff ff       	jmpq   2cd0 <ot_recover+0x40>
    2edf:	90                   	nop
    2ee0:	48 8d 0d 59 47 00 00 	lea    0x4759(%rip),%rcx        # 7640 <__PRETTY_FUNCTION__.3929>
    2ee7:	48 8d 35 15 47 00 00 	lea    0x4715(%rip),%rsi        # 7603 <_fini+0x173>
    2eee:	48 8d 3d 21 47 00 00 	lea    0x4721(%rip),%rdi        # 7616 <_fini+0x186>
    2ef5:	ba 99 00 00 00       	mov    $0x99,%edx
    2efa:	e8 81 f1 ff ff       	callq  2080 <__assert_fail@plt>
    2eff:	90                   	nop
    2f00:	4c 89 e7             	mov    %r12,%rdi
    2f03:	31 d2                	xor    %edx,%edx
    2f05:	48 81 e7 00 f0 ff ff 	and    $0xfffffffffffff000,%rdi
    2f0c:	48 8d 47 40          	lea    0x40(%rdi),%rax
    2f10:	0f b7 4f 02          	movzwl 0x2(%rdi),%ecx
    2f14:	44 0f b6 07          	movzbl (%rdi),%r8d
    2f18:	49 29 c4             	sub    %rax,%r12
    2f1b:	4c 89 e0             	mov    %r12,%rax
    2f1e:	48 f7 f1             	div    %rcx
    2f21:	ba 01 00 00 00       	mov    $0x1,%edx
    2f26:	89 c1                	mov    %eax,%ecx
    2f28:	83 e1 07             	and    $0x7,%ecx
    2f2b:	d3 e2                	shl    %cl,%edx
    2f2d:	89 d1                	mov    %edx,%ecx
    2f2f:	89 c2                	mov    %eax,%edx
    2f31:	66 c1 ea 03          	shr    $0x3,%dx
    2f35:	41 80 f8 04          	cmp    $0x4,%r8b
    2f39:	74 10                	je     2f4b <ot_recover+0x2bb>
    2f3b:	41 80 f8 07          	cmp    $0x7,%r8b
    2f3f:	74 1c                	je     2f5d <ot_recover+0x2cd>
    2f41:	41 80 f8 02          	cmp    $0x2,%r8b
    2f45:	0f 85 c3 fd ff ff    	jne    2d0e <ot_recover+0x7e>
    2f4b:	0f b6 d2             	movzbl %dl,%edx
    2f4e:	84 4c 17 30          	test   %cl,0x30(%rdi,%rdx,1)
    2f52:	0f 84 b6 fd ff ff    	je     2d0e <ot_recover+0x7e>
    2f58:	e9 28 fe ff ff       	jmpq   2d85 <ot_recover+0xf5>
    2f5d:	0f bf 57 38          	movswl 0x38(%rdi),%edx
    2f61:	0f b7 c0             	movzwl %ax,%eax
    2f64:	39 d0                	cmp    %edx,%eax
    2f66:	0f 85 a2 fd ff ff    	jne    2d0e <ot_recover+0x7e>
    2f6c:	e9 14 fe ff ff       	jmpq   2d85 <ot_recover+0xf5>
    2f71:	49 83 c6 01          	add    $0x1,%r14
    2f75:	4c 89 35 6c 63 20 00 	mov    %r14,0x20636c(%rip)        # 2092e8 <next_nvm_slot>
    2f7c:	48 83 c4 28          	add    $0x28,%rsp
    2f80:	5b                   	pop    %rbx
    2f81:	5d                   	pop    %rbp
    2f82:	41 5c                	pop    %r12
    2f84:	41 5d                	pop    %r13
    2f86:	41 5e                	pop    %r14
    2f88:	41 5f                	pop    %r15
    2f8a:	c3                   	retq   
    2f8b:	0f 1f 44 00 00       	nopl   0x0(%rax,%rax,1)

0000000000002f90 <ot_get>:
    2f90:	55                   	push   %rbp
    2f91:	53                   	push   %rbx
    2f92:	48 89 fd             	mov    %rdi,%rbp
    2f95:	48 83 ec 08          	sub    $0x8,%rsp
    2f99:	48 0f be 45 00       	movsbq 0x0(%rbp),%rax
    2f9e:	48 8b 3d 53 63 20 00 	mov    0x206353(%rip),%rdi        # 2092f8 <ot_hashmap>
    2fa5:	84 c0                	test   %al,%al
    2fa7:	74 7f                	je     3028 <ot_get+0x98>
    2fa9:	48 8d 75 01          	lea    0x1(%rbp),%rsi
    2fad:	b9 05 15 00 00       	mov    $0x1505,%ecx
    2fb2:	66 0f 1f 44 00 00    	nopw   0x0(%rax,%rax,1)
    2fb8:	48 89 ca             	mov    %rcx,%rdx
    2fbb:	48 83 c6 01          	add    $0x1,%rsi
    2fbf:	48 c1 e2 05          	shl    $0x5,%rdx
    2fc3:	48 01 d0             	add    %rdx,%rax
    2fc6:	48 01 c1             	add    %rax,%rcx
    2fc9:	48 0f be 46 ff       	movsbq -0x1(%rsi),%rax
    2fce:	84 c0                	test   %al,%al
    2fd0:	75 e6                	jne    2fb8 <ot_get+0x28>
    2fd2:	48 23 0f             	and    (%rdi),%rcx
    2fd5:	48 8b 47 08          	mov    0x8(%rdi),%rax
    2fd9:	48 8b 1c c8          	mov    (%rax,%rcx,8),%rbx
    2fdd:	48 85 db             	test   %rbx,%rbx
    2fe0:	75 0f                	jne    2ff1 <ot_get+0x61>
    2fe2:	eb 34                	jmp    3018 <ot_get+0x88>
    2fe4:	0f 1f 40 00          	nopl   0x0(%rax)
    2fe8:	48 8b 5b 08          	mov    0x8(%rbx),%rbx
    2fec:	48 85 db             	test   %rbx,%rbx
    2fef:	74 27                	je     3018 <ot_get+0x88>
    2ff1:	48 8b 73 10          	mov    0x10(%rbx),%rsi
    2ff5:	ba 36 00 00 00       	mov    $0x36,%edx
    2ffa:	48 89 ef             	mov    %rbp,%rdi
    2ffd:	e8 2e ef ff ff       	callq  1f30 <strncmp@plt>
    3002:	85 c0                	test   %eax,%eax
    3004:	75 e2                	jne    2fe8 <ot_get+0x58>
    3006:	48 8b 43 18          	mov    0x18(%rbx),%rax
    300a:	48 83 c4 08          	add    $0x8,%rsp
    300e:	5b                   	pop    %rbx
    300f:	5d                   	pop    %rbp
    3010:	c3                   	retq   
    3011:	0f 1f 80 00 00 00 00 	nopl   0x0(%rax)
    3018:	48 83 c4 08          	add    $0x8,%rsp
    301c:	31 c0                	xor    %eax,%eax
    301e:	5b                   	pop    %rbx
    301f:	5d                   	pop    %rbp
    3020:	c3                   	retq   
    3021:	0f 1f 80 00 00 00 00 	nopl   0x0(%rax)
    3028:	b9 05 15 00 00       	mov    $0x1505,%ecx
    302d:	eb a3                	jmp    2fd2 <ot_get+0x42>
    302f:	90                   	nop

0000000000003030 <ot_insert>:
    3030:	41 56                	push   %r14
    3032:	41 55                	push   %r13
    3034:	41 54                	push   %r12
    3036:	55                   	push   %rbp
    3037:	48 89 f5             	mov    %rsi,%rbp
    303a:	53                   	push   %rbx
    303b:	48 89 fb             	mov    %rdi,%rbx
    303e:	e8 6d f2 ff ff       	callq  22b0 <ot_get@plt>
    3043:	48 85 c0             	test   %rax,%rax
    3046:	ba 02 00 00 00       	mov    $0x2,%edx
    304b:	74 13                	je     3060 <ot_insert+0x30>
    304d:	5b                   	pop    %rbx
    304e:	89 d0                	mov    %edx,%eax
    3050:	5d                   	pop    %rbp
    3051:	41 5c                	pop    %r12
    3053:	41 5d                	pop    %r13
    3055:	41 5e                	pop    %r14
    3057:	c3                   	retq   
    3058:	0f 1f 84 00 00 00 00 	nopl   0x0(%rax,%rax,1)
    305f:	00 
    3060:	b8 ff ff ff ff       	mov    $0xffffffff,%eax
    3065:	66 f0 0f c1 05 92 62 	lock xadd %ax,0x206292(%rip)        # 209300 <slot_buffer_n_free>
    306c:	20 00 
    306e:	66 85 c0             	test   %ax,%ax
    3071:	0f 8e 19 01 00 00    	jle    3190 <ot_insert+0x160>
    3077:	ba 01 00 00 00       	mov    $0x1,%edx
    307c:	f0 48 0f c1 15 83 62 	lock xadd %rdx,0x206283(%rip)        # 209308 <slot_buffer_head_idx>
    3083:	20 00 
    3085:	48 8d 05 94 62 20 00 	lea    0x206294(%rip),%rax        # 209320 <slot_buffer>
    308c:	4c 8b 34 d0          	mov    (%rax,%rdx,8),%r14
    3090:	4c 89 f0             	mov    %r14,%rax
    3093:	48 ba 11 04 41 10 04 	movabs $0x410410410410411,%rdx
    309a:	41 10 04 
    309d:	bf 50 00 00 00       	mov    $0x50,%edi
    30a2:	48 f7 e2             	mul    %rdx
    30a5:	4c 89 f0             	mov    %r14,%rax
    30a8:	48 29 d0             	sub    %rdx,%rax
    30ab:	48 d1 e8             	shr    %rax
    30ae:	48 01 c2             	add    %rax,%rdx
    30b1:	48 8b 05 28 62 20 00 	mov    0x206228(%rip),%rax        # 2092e0 <first_chunk>
    30b8:	48 c1 ea 05          	shr    $0x5,%rdx
    30bc:	49 89 d5             	mov    %rdx,%r13
    30bf:	48 89 d1             	mov    %rdx,%rcx
    30c2:	49 c1 e5 1f          	shl    $0x1f,%r13
    30c6:	48 c1 e1 06          	shl    $0x6,%rcx
    30ca:	48 29 d1             	sub    %rdx,%rcx
    30cd:	4c 01 e8             	add    %r13,%rax
    30d0:	4d 89 f5             	mov    %r14,%r13
    30d3:	49 29 cd             	sub    %rcx,%r13
    30d6:	49 83 c5 01          	add    $0x1,%r13
    30da:	49 c1 e5 06          	shl    $0x6,%r13
    30de:	49 01 c5             	add    %rax,%r13
    30e1:	e8 7a f0 ff ff       	callq  2160 <malloc@plt>
    30e6:	48 89 de             	mov    %rbx,%rsi
    30e9:	49 89 c4             	mov    %rax,%r12
    30ec:	ba 36 00 00 00       	mov    $0x36,%edx
    30f1:	48 89 c7             	mov    %rax,%rdi
    30f4:	e8 27 ee ff ff       	callq  1f20 <strncpy@plt>
    30f9:	49 0f be 04 24       	movsbq (%r12),%rax
    30fe:	49 89 6c 24 40       	mov    %rbp,0x40(%r12)
    3103:	49 8d 74 24 01       	lea    0x1(%r12),%rsi
    3108:	41 c6 44 24 36 00    	movb   $0x0,0x36(%r12)
    310e:	4d 89 74 24 38       	mov    %r14,0x38(%r12)
    3113:	b9 05 15 00 00       	mov    $0x1505,%ecx
    3118:	4d 89 6c 24 48       	mov    %r13,0x48(%r12)
    311d:	48 8b 2d d4 61 20 00 	mov    0x2061d4(%rip),%rbp        # 2092f8 <ot_hashmap>
    3124:	84 c0                	test   %al,%al
    3126:	74 22                	je     314a <ot_insert+0x11a>
    3128:	0f 1f 84 00 00 00 00 	nopl   0x0(%rax,%rax,1)
    312f:	00 
    3130:	48 89 ca             	mov    %rcx,%rdx
    3133:	48 83 c6 01          	add    $0x1,%rsi
    3137:	48 c1 e2 05          	shl    $0x5,%rdx
    313b:	48 01 d0             	add    %rdx,%rax
    313e:	48 01 c1             	add    %rax,%rcx
    3141:	48 0f be 46 ff       	movsbq -0x1(%rsi),%rax
    3146:	84 c0                	test   %al,%al
    3148:	75 e6                	jne    3130 <ot_insert+0x100>
    314a:	48 8b 5d 00          	mov    0x0(%rbp),%rbx
    314e:	bf 20 00 00 00       	mov    $0x20,%edi
    3153:	48 21 cb             	and    %rcx,%rbx
    3156:	e8 05 f0 ff ff       	callq  2160 <malloc@plt>
    315b:	48 85 c0             	test   %rax,%rax
    315e:	74 70                	je     31d0 <ot_insert+0x1a0>
    3160:	48 8b 55 08          	mov    0x8(%rbp),%rdx
    3164:	48 8d 14 da          	lea    (%rdx,%rbx,8),%rdx
    3168:	48 8b 0a             	mov    (%rdx),%rcx
    316b:	48 c7 00 00 00 00 00 	movq   $0x0,(%rax)
    3172:	4c 89 60 10          	mov    %r12,0x10(%rax)
    3176:	48 89 48 08          	mov    %rcx,0x8(%rax)
    317a:	48 89 02             	mov    %rax,(%rdx)
    317d:	31 d2                	xor    %edx,%edx
    317f:	4c 89 60 18          	mov    %r12,0x18(%rax)
    3183:	89 d0                	mov    %edx,%eax
    3185:	5b                   	pop    %rbx
    3186:	5d                   	pop    %rbp
    3187:	41 5c                	pop    %r12
    3189:	41 5d                	pop    %r13
    318b:	41 5e                	pop    %r14
    318d:	c3                   	retq   
    318e:	66 90                	xchg   %ax,%ax
    3190:	66 83 05 68 61 20 00 	addw   $0x1,0x206168(%rip)        # 209300 <slot_buffer_n_free>
    3197:	01 
    3198:	41 be 01 00 00 00    	mov    $0x1,%r14d
    319e:	f0 4c 0f c1 35 41 61 	lock xadd %r14,0x206141(%rip)        # 2092e8 <next_nvm_slot>
    31a5:	20 00 
    31a7:	4c 39 35 42 61 20 00 	cmp    %r14,0x206142(%rip)        # 2092f0 <total_slots_available>
    31ae:	0f 87 dc fe ff ff    	ja     3090 <ot_insert+0x60>
    31b4:	f0 48 83 2d 2b 61 20 	lock subq $0x1,0x20612b(%rip)        # 2092e8 <next_nvm_slot>
    31bb:	00 01 
    31bd:	ba 01 00 00 00       	mov    $0x1,%edx
    31c2:	e9 86 fe ff ff       	jmpq   304d <ot_insert+0x1d>
    31c7:	66 0f 1f 84 00 00 00 	nopw   0x0(%rax,%rax,1)
    31ce:	00 00 
    31d0:	48 8d 0d 59 44 00 00 	lea    0x4459(%rip),%rcx        # 7630 <__PRETTY_FUNCTION__.3946>
    31d7:	48 8d 35 25 44 00 00 	lea    0x4425(%rip),%rsi        # 7603 <_fini+0x173>
    31de:	48 8d 3d 31 44 00 00 	lea    0x4431(%rip),%rdi        # 7616 <_fini+0x186>
    31e5:	ba cc 00 00 00       	mov    $0xcc,%edx
    31ea:	e8 91 ee ff ff       	callq  2080 <__assert_fail@plt>
    31ef:	90                   	nop

00000000000031f0 <ot_remove>:
    31f0:	41 56                	push   %r14
    31f2:	41 55                	push   %r13
    31f4:	41 54                	push   %r12
    31f6:	55                   	push   %rbp
    31f7:	53                   	push   %rbx
    31f8:	48 0f be 07          	movsbq (%rdi),%rax
    31fc:	4c 8b 05 f5 60 20 00 	mov    0x2060f5(%rip),%r8        # 2092f8 <ot_hashmap>
    3203:	84 c0                	test   %al,%al
    3205:	0f 84 35 01 00 00    	je     3340 <ot_remove+0x150>
    320b:	48 8d 77 01          	lea    0x1(%rdi),%rsi
    320f:	b9 05 15 00 00       	mov    $0x1505,%ecx
    3214:	0f 1f 40 00          	nopl   0x0(%rax)
    3218:	48 89 ca             	mov    %rcx,%rdx
    321b:	48 83 c6 01          	add    $0x1,%rsi
    321f:	48 c1 e2 05          	shl    $0x5,%rdx
    3223:	48 01 d0             	add    %rdx,%rax
    3226:	48 01 c1             	add    %rax,%rcx
    3229:	48 0f be 46 ff       	movsbq -0x1(%rsi),%rax
    322e:	84 c0                	test   %al,%al
    3230:	75 e6                	jne    3218 <ot_remove+0x28>
    3232:	49 23 08             	and    (%r8),%rcx
    3235:	49 8b 40 08          	mov    0x8(%r8),%rax
    3239:	4c 8d 2c c8          	lea    (%rax,%rcx,8),%r13
    323d:	49 8b 5d 00          	mov    0x0(%r13),%rbx
    3241:	48 85 db             	test   %rbx,%rbx
    3244:	0f 84 d6 00 00 00    	je     3320 <ot_remove+0x130>
    324a:	49 89 fc             	mov    %rdi,%r12
    324d:	45 31 f6             	xor    %r14d,%r14d
    3250:	eb 15                	jmp    3267 <ot_remove+0x77>
    3252:	66 0f 1f 44 00 00    	nopw   0x0(%rax,%rax,1)
    3258:	48 85 c0             	test   %rax,%rax
    325b:	49 89 de             	mov    %rbx,%r14
    325e:	0f 84 bc 00 00 00    	je     3320 <ot_remove+0x130>
    3264:	48 89 c3             	mov    %rax,%rbx
    3267:	48 8b 73 10          	mov    0x10(%rbx),%rsi
    326b:	ba 36 00 00 00       	mov    $0x36,%edx
    3270:	4c 89 e7             	mov    %r12,%rdi
    3273:	e8 b8 ec ff ff       	callq  1f30 <strncmp@plt>
    3278:	89 c5                	mov    %eax,%ebp
    327a:	48 8b 43 08          	mov    0x8(%rbx),%rax
    327e:	85 ed                	test   %ebp,%ebp
    3280:	75 d6                	jne    3258 <ot_remove+0x68>
    3282:	4d 85 f6             	test   %r14,%r14
    3285:	4c 8b 63 18          	mov    0x18(%rbx),%r12
    3289:	0f 84 a1 00 00 00    	je     3330 <ot_remove+0x140>
    328f:	49 89 46 08          	mov    %rax,0x8(%r14)
    3293:	48 89 df             	mov    %rbx,%rdi
    3296:	e8 45 ec ff ff       	callq  1ee0 <free@plt>
    329b:	b9 01 00 00 00       	mov    $0x1,%ecx
    32a0:	f0 48 0f c1 0d 67 60 	lock xadd %rcx,0x206067(%rip)        # 209310 <slot_buffer_next_idx>
    32a7:	20 00 
    32a9:	48 ba 0b d7 a3 70 3d 	movabs $0xa3d70a3d70a3d70b,%rdx
    32b0:	0a d7 a3 
    32b3:	48 89 c8             	mov    %rcx,%rax
    32b6:	48 f7 ea             	imul   %rdx
    32b9:	48 89 c8             	mov    %rcx,%rax
    32bc:	48 c1 f8 3f          	sar    $0x3f,%rax
    32c0:	48 01 ca             	add    %rcx,%rdx
    32c3:	48 c1 fa 07          	sar    $0x7,%rdx
    32c7:	48 29 c2             	sub    %rax,%rdx
    32ca:	48 8d 04 92          	lea    (%rdx,%rdx,4),%rax
    32ce:	48 8d 04 80          	lea    (%rax,%rax,4),%rax
    32d2:	48 c1 e0 03          	shl    $0x3,%rax
    32d6:	48 29 c1             	sub    %rax,%rcx
    32d9:	48 8d 05 40 60 20 00 	lea    0x206040(%rip),%rax        # 209320 <slot_buffer>
    32e0:	48 89 ca             	mov    %rcx,%rdx
    32e3:	49 8b 4c 24 38       	mov    0x38(%r12),%rcx
    32e8:	48 89 0c d0          	mov    %rcx,(%rax,%rdx,8)
    32ec:	48 8d 4a ff          	lea    -0x1(%rdx),%rcx
    32f0:	48 89 c8             	mov    %rcx,%rax
    32f3:	f0 48 0f b1 15 2c 5f 	lock cmpxchg %rdx,0x205f2c(%rip)        # 209228 <slot_buffer_tail_idx>
    32fa:	20 00 
    32fc:	75 f2                	jne    32f0 <ot_remove+0x100>
    32fe:	4c 89 e7             	mov    %r12,%rdi
    3301:	66 83 05 f7 5f 20 00 	addw   $0x1,0x205ff7(%rip)        # 209300 <slot_buffer_n_free>
    3308:	01 
    3309:	e8 d2 eb ff ff       	callq  1ee0 <free@plt>
    330e:	5b                   	pop    %rbx
    330f:	89 e8                	mov    %ebp,%eax
    3311:	5d                   	pop    %rbp
    3312:	41 5c                	pop    %r12
    3314:	41 5d                	pop    %r13
    3316:	41 5e                	pop    %r14
    3318:	c3                   	retq   
    3319:	0f 1f 80 00 00 00 00 	nopl   0x0(%rax)
    3320:	bd 01 00 00 00       	mov    $0x1,%ebp
    3325:	5b                   	pop    %rbx
    3326:	89 e8                	mov    %ebp,%eax
    3328:	5d                   	pop    %rbp
    3329:	41 5c                	pop    %r12
    332b:	41 5d                	pop    %r13
    332d:	41 5e                	pop    %r14
    332f:	c3                   	retq   
    3330:	49 89 45 00          	mov    %rax,0x0(%r13)
    3334:	e9 5a ff ff ff       	jmpq   3293 <ot_remove+0xa3>
    3339:	0f 1f 80 00 00 00 00 	nopl   0x0(%rax)
    3340:	b9 05 15 00 00       	mov    $0x1505,%ecx
    3345:	e9 e8 fe ff ff       	jmpq   3232 <ot_remove+0x42>
    334a:	66 0f 1f 44 00 00    	nopw   0x0(%rax,%rax,1)

0000000000003350 <ot_teardown>:
    3350:	41 56                	push   %r14
    3352:	41 55                	push   %r13
    3354:	41 54                	push   %r12
    3356:	4c 8b 25 9b 5f 20 00 	mov    0x205f9b(%rip),%r12        # 2092f8 <ot_hashmap>
    335d:	55                   	push   %rbp
    335e:	53                   	push   %rbx
    335f:	49 8b 5c 24 10       	mov    0x10(%r12),%rbx
    3364:	49 8b 7c 24 08       	mov    0x8(%r12),%rdi
    3369:	49 8b 2c 24          	mov    (%r12),%rbp
    336d:	48 85 db             	test   %rbx,%rbx
    3370:	0f 84 0a 02 00 00    	je     3580 <ot_teardown+0x230>
    3376:	4c 8b 6b 10          	mov    0x10(%rbx),%r13
    337a:	b9 05 15 00 00       	mov    $0x1505,%ecx
    337f:	49 0f be 45 00       	movsbq 0x0(%r13),%rax
    3384:	49 8d 75 01          	lea    0x1(%r13),%rsi
    3388:	84 c0                	test   %al,%al
    338a:	74 1e                	je     33aa <ot_teardown+0x5a>
    338c:	0f 1f 40 00          	nopl   0x0(%rax)
    3390:	48 89 ca             	mov    %rcx,%rdx
    3393:	48 83 c6 01          	add    $0x1,%rsi
    3397:	48 c1 e2 05          	shl    $0x5,%rdx
    339b:	48 01 d0             	add    %rdx,%rax
    339e:	48 01 c1             	add    %rax,%rcx
    33a1:	48 0f be 46 ff       	movsbq -0x1(%rsi),%rax
    33a6:	84 c0                	test   %al,%al
    33a8:	75 e6                	jne    3390 <ot_teardown+0x40>
    33aa:	48 21 e9             	and    %rbp,%rcx
    33ad:	49 89 ce             	mov    %rcx,%r14
    33b0:	48 8b 2c cf          	mov    (%rdi,%rcx,8),%rbp
    33b4:	eb 0e                	jmp    33c4 <ot_teardown+0x74>
    33b6:	66 2e 0f 1f 84 00 00 	nopw   %cs:0x0(%rax,%rax,1)
    33bd:	00 00 00 
    33c0:	48 8b 6d 08          	mov    0x8(%rbp),%rbp
    33c4:	48 8b 75 10          	mov    0x10(%rbp),%rsi
    33c8:	ba 36 00 00 00       	mov    $0x36,%edx
    33cd:	4c 89 ef             	mov    %r13,%rdi
    33d0:	e8 5b eb ff ff       	callq  1f30 <strncmp@plt>
    33d5:	85 c0                	test   %eax,%eax
    33d7:	75 e7                	jne    33c0 <ot_teardown+0x70>
    33d9:	48 85 db             	test   %rbx,%rbx
    33dc:	0f 84 8e 00 00 00    	je     3470 <ot_teardown+0x120>
    33e2:	48 8b 7b 18          	mov    0x18(%rbx),%rdi
    33e6:	e8 f5 ea ff ff       	callq  1ee0 <free@plt>
    33eb:	49 83 7c 24 10 00    	cmpq   $0x0,0x10(%r12)
    33f1:	0f 84 49 01 00 00    	je     3540 <ot_teardown+0x1f0>
    33f7:	48 8b 1b             	mov    (%rbx),%rbx
    33fa:	48 85 db             	test   %rbx,%rbx
    33fd:	74 71                	je     3470 <ot_teardown+0x120>
    33ff:	48 8b 6b 10          	mov    0x10(%rbx),%rbp
    3403:	b9 05 15 00 00       	mov    $0x1505,%ecx
    3408:	48 0f be 45 00       	movsbq 0x0(%rbp),%rax
    340d:	48 8d 75 01          	lea    0x1(%rbp),%rsi
    3411:	84 c0                	test   %al,%al
    3413:	74 1d                	je     3432 <ot_teardown+0xe2>
    3415:	0f 1f 00             	nopl   (%rax)
    3418:	48 89 ca             	mov    %rcx,%rdx
    341b:	48 83 c6 01          	add    $0x1,%rsi
    341f:	48 c1 e2 05          	shl    $0x5,%rdx
    3423:	48 01 d0             	add    %rdx,%rax
    3426:	48 01 c1             	add    %rax,%rcx
    3429:	48 0f be 46 ff       	movsbq -0x1(%rsi),%rax
    342e:	84 c0                	test   %al,%al
    3430:	75 e6                	jne    3418 <ot_teardown+0xc8>
    3432:	49 23 0c 24          	and    (%r12),%rcx
    3436:	49 8b 7c 24 08       	mov    0x8(%r12),%rdi
    343b:	49 89 ce             	mov    %rcx,%r14
    343e:	4c 8b 2c cf          	mov    (%rdi,%rcx,8),%r13
    3442:	eb 08                	jmp    344c <ot_teardown+0xfc>
    3444:	0f 1f 40 00          	nopl   0x0(%rax)
    3448:	4d 8b 6d 08          	mov    0x8(%r13),%r13
    344c:	49 8b 75 10          	mov    0x10(%r13),%rsi
    3450:	ba 36 00 00 00       	mov    $0x36,%edx
    3455:	48 89 ef             	mov    %rbp,%rdi
    3458:	e8 d3 ea ff ff       	callq  1f30 <strncmp@plt>
    345d:	85 c0                	test   %eax,%eax
    345f:	75 e7                	jne    3448 <ot_teardown+0xf8>
    3461:	48 85 db             	test   %rbx,%rbx
    3464:	0f 85 78 ff ff ff    	jne    33e2 <ot_teardown+0x92>
    346a:	66 0f 1f 44 00 00    	nopw   0x0(%rax,%rax,1)
    3470:	49 8b 7c 24 08       	mov    0x8(%r12),%rdi
    3475:	49 8b 2c 24          	mov    (%r12),%rbp
    3479:	49 c7 44 24 10 00 00 	movq   $0x0,0x10(%r12)
    3480:	00 00 
    3482:	48 89 f8             	mov    %rdi,%rax
    3485:	31 db                	xor    %ebx,%ebx
    3487:	48 8b 3c d8          	mov    (%rax,%rbx,8),%rdi
    348b:	4c 8d 2c dd 00 00 00 	lea    0x0(,%rbx,8),%r13
    3492:	00 
    3493:	48 85 ff             	test   %rdi,%rdi
    3496:	74 26                	je     34be <ot_teardown+0x16e>
    3498:	0f 1f 84 00 00 00 00 	nopl   0x0(%rax,%rax,1)
    349f:	00 
    34a0:	4c 8b 77 08          	mov    0x8(%rdi),%r14
    34a4:	e8 37 ea ff ff       	callq  1ee0 <free@plt>
    34a9:	4d 85 f6             	test   %r14,%r14
    34ac:	4c 89 f7             	mov    %r14,%rdi
    34af:	75 ef                	jne    34a0 <ot_teardown+0x150>
    34b1:	49 8b 44 24 08       	mov    0x8(%r12),%rax
    34b6:	4a c7 04 28 00 00 00 	movq   $0x0,(%rax,%r13,1)
    34bd:	00 
    34be:	48 83 c3 01          	add    $0x1,%rbx
    34c2:	48 39 dd             	cmp    %rbx,%rbp
    34c5:	73 c0                	jae    3487 <ot_teardown+0x137>
    34c7:	48 89 c7             	mov    %rax,%rdi
    34ca:	e8 11 ea ff ff       	callq  1ee0 <free@plt>
    34cf:	4c 89 e7             	mov    %r12,%rdi
    34d2:	e8 09 ea ff ff       	callq  1ee0 <free@plt>
    34d7:	31 c0                	xor    %eax,%eax
    34d9:	48 c7 05 14 5e 20 00 	movq   $0x0,0x205e14(%rip)        # 2092f8 <ot_hashmap>
    34e0:	00 00 00 00 
    34e4:	48 c7 05 01 5e 20 00 	movq   $0x0,0x205e01(%rip)        # 2092f0 <total_slots_available>
    34eb:	00 00 00 00 
    34ef:	5b                   	pop    %rbx
    34f0:	48 c7 05 ed 5d 20 00 	movq   $0x0,0x205ded(%rip)        # 2092e8 <next_nvm_slot>
    34f7:	00 00 00 00 
    34fb:	48 c7 05 da 5d 20 00 	movq   $0x0,0x205dda(%rip)        # 2092e0 <first_chunk>
    3502:	00 00 00 00 
    3506:	5d                   	pop    %rbp
    3507:	48 c7 05 fe 5d 20 00 	movq   $0x0,0x205dfe(%rip)        # 209310 <slot_buffer_next_idx>
    350e:	00 00 00 00 
    3512:	48 c7 05 eb 5d 20 00 	movq   $0x0,0x205deb(%rip)        # 209308 <slot_buffer_head_idx>
    3519:	00 00 00 00 
    351d:	41 5c                	pop    %r12
    351f:	48 c7 05 fe 5c 20 00 	movq   $0xffffffffffffffff,0x205cfe(%rip)        # 209228 <slot_buffer_tail_idx>
    3526:	ff ff ff ff 
    352a:	66 89 05 cf 5d 20 00 	mov    %ax,0x205dcf(%rip)        # 209300 <slot_buffer_n_free>
    3531:	41 5d                	pop    %r13
    3533:	41 5e                	pop    %r14
    3535:	c3                   	retq   
    3536:	66 2e 0f 1f 84 00 00 	nopw   %cs:0x0(%rax,%rax,1)
    353d:	00 00 00 
    3540:	48 8b 5b 08          	mov    0x8(%rbx),%rbx
    3544:	48 85 db             	test   %rbx,%rbx
    3547:	0f 85 8c fe ff ff    	jne    33d9 <ot_teardown+0x89>
    354d:	49 8b 2c 24          	mov    (%r12),%rbp
    3551:	49 8b 7c 24 08       	mov    0x8(%r12),%rdi
    3556:	4c 39 f5             	cmp    %r14,%rbp
    3559:	77 0e                	ja     3569 <ot_teardown+0x219>
    355b:	e9 19 ff ff ff       	jmpq   3479 <ot_teardown+0x129>
    3560:	4c 39 f5             	cmp    %r14,%rbp
    3563:	0f 84 10 ff ff ff    	je     3479 <ot_teardown+0x129>
    3569:	49 83 c6 01          	add    $0x1,%r14
    356d:	4a 8b 1c f7          	mov    (%rdi,%r14,8),%rbx
    3571:	48 85 db             	test   %rbx,%rbx
    3574:	74 ea                	je     3560 <ot_teardown+0x210>
    3576:	e9 5e fe ff ff       	jmpq   33d9 <ot_teardown+0x89>
    357b:	0f 1f 44 00 00       	nopl   0x0(%rax,%rax,1)
    3580:	48 8b 1f             	mov    (%rdi),%rbx
    3583:	45 31 f6             	xor    %r14d,%r14d
    3586:	48 85 db             	test   %rbx,%rbx
    3589:	48 89 d8             	mov    %rbx,%rax
    358c:	74 0b                	je     3599 <ot_teardown+0x249>
    358e:	eb 17                	jmp    35a7 <ot_teardown+0x257>
    3590:	4a 8b 04 f7          	mov    (%rdi,%r14,8),%rax
    3594:	48 85 c0             	test   %rax,%rax
    3597:	75 0e                	jne    35a7 <ot_teardown+0x257>
    3599:	49 83 c6 01          	add    $0x1,%r14
    359d:	49 39 ee             	cmp    %rbp,%r14
    35a0:	76 ee                	jbe    3590 <ot_teardown+0x240>
    35a2:	e9 32 fe ff ff       	jmpq   33d9 <ot_teardown+0x89>
    35a7:	48 89 c3             	mov    %rax,%rbx
    35aa:	e9 2a fe ff ff       	jmpq   33d9 <ot_teardown+0x89>
    35af:	90                   	nop

00000000000035b0 <block_node_compare>:
    35b0:	8b 4f 20             	mov    0x20(%rdi),%ecx
    35b3:	8b 56 20             	mov    0x20(%rsi),%edx
    35b6:	31 c0                	xor    %eax,%eax
    35b8:	39 d1                	cmp    %edx,%ecx
    35ba:	0f 97 c0             	seta   %al
    35bd:	83 d8 00             	sbb    $0x0,%eax
    35c0:	c3                   	retq   
    35c1:	0f 1f 44 00 00       	nopl   0x0(%rax,%rax,1)
    35c6:	66 2e 0f 1f 84 00 00 	nopw   %cs:0x0(%rax,%rax,1)
    35cd:	00 00 00 

00000000000035d0 <run_node_compare>:
    35d0:	48 8b 4f 18          	mov    0x18(%rdi),%rcx
    35d4:	48 8b 56 18          	mov    0x18(%rsi),%rdx
    35d8:	31 c0                	xor    %eax,%eax
    35da:	48 39 d1             	cmp    %rdx,%rcx
    35dd:	0f 97 c0             	seta   %al
    35e0:	83 d8 00             	sbb    $0x0,%eax
    35e3:	c3                   	retq   
    35e4:	66 90                	xchg   %ax,%ax
    35e6:	66 2e 0f 1f 84 00 00 	nopw   %cs:0x0(%rax,%rax,1)
    35ed:	00 00 00 

00000000000035f0 <arena_init>:
    35f0:	41 57                	push   %r15
    35f2:	41 56                	push   %r14
    35f4:	41 89 cf             	mov    %ecx,%r15d
    35f7:	41 55                	push   %r13
    35f9:	41 54                	push   %r12
    35fb:	49 89 fd             	mov    %rdi,%r13
    35fe:	55                   	push   %rbp
    35ff:	53                   	push   %rbx
    3600:	48 8d bf 50 08 00 00 	lea    0x850(%rdi),%rdi
    3607:	49 8d ad c8 07 00 00 	lea    0x7c8(%r13),%rbp
    360e:	49 8d 5d 20          	lea    0x20(%r13),%rbx
    3612:	4d 8d a5 e0 07 00 00 	lea    0x7e0(%r13),%r12
    3619:	48 83 ec 08          	sub    $0x8,%rsp
    361d:	89 b7 b0 f7 ff ff    	mov    %esi,-0x850(%rdi)
    3623:	48 c7 47 f8 00 00 00 	movq   $0x0,-0x8(%rdi)
    362a:	00 
    362b:	31 f6                	xor    %esi,%esi
    362d:	49 89 d6             	mov    %rdx,%r14
    3630:	e8 3b ec ff ff       	callq  2270 <pthread_mutex_init@plt>
    3635:	0f 1f 00             	nopl   (%rax)
    3638:	31 c0                	xor    %eax,%eax
    363a:	48 c7 43 e8 00 00 00 	movq   $0x0,-0x18(%rbx)
    3641:	00 
    3642:	c7 43 f0 00 00 00 00 	movl   $0x0,-0x10(%rbx)
    3649:	66 89 43 f4          	mov    %ax,-0xc(%rbx)
    364d:	48 c7 43 f8 00 00 00 	movq   $0x0,-0x8(%rbx)
    3654:	00 
    3655:	31 f6                	xor    %esi,%esi
    3657:	c7 45 00 00 00 00 00 	movl   $0x0,0x0(%rbp)
    365e:	48 89 df             	mov    %rbx,%rdi
    3661:	48 83 c3 40          	add    $0x40,%rbx
    3665:	e8 06 ec ff ff       	callq  2270 <pthread_mutex_init@plt>
    366a:	48 83 c5 04          	add    $0x4,%rbp
    366e:	4c 39 e3             	cmp    %r12,%rbx
    3671:	75 c5                	jne    3638 <arena_init+0x48>
    3673:	45 85 ff             	test   %r15d,%r15d
    3676:	75 18                	jne    3690 <arena_init+0xa0>
    3678:	48 83 c4 08          	add    $0x8,%rsp
    367c:	5b                   	pop    %rbx
    367d:	5d                   	pop    %rbp
    367e:	41 5c                	pop    %r12
    3680:	41 5d                	pop    %r13
    3682:	41 5e                	pop    %r14
    3684:	41 5f                	pop    %r15
    3686:	c3                   	retq   
    3687:	66 0f 1f 84 00 00 00 	nopw   0x0(%rax,%rax,1)
    368e:	00 00 
    3690:	bf 30 00 00 00       	mov    $0x30,%edi
    3695:	49 8d 9e 00 10 00 00 	lea    0x1000(%r14),%rbx
    369c:	e8 bf ea ff ff       	callq  2160 <malloc@plt>
    36a1:	48 8b 35 00 59 20 00 	mov    0x205900(%rip),%rsi        # 208fa8 <block_node_compare@@Base+0x2059f8>
    36a8:	49 8d 95 48 08 00 00 	lea    0x848(%r13),%rdx
    36af:	48 89 c7             	mov    %rax,%rdi
    36b2:	48 89 58 18          	mov    %rbx,0x18(%rax)
    36b6:	4c 89 68 28          	mov    %r13,0x28(%rax)
    36ba:	c7 40 20 ff ff 07 00 	movl   $0x7ffff,0x20(%rax)
    36c1:	e8 fa eb ff ff       	callq  22c0 <tree_add@plt>
    36c6:	41 c6 86 00 10 00 00 	movb   $0x12,0x1000(%r14)
    36cd:	12 
    36ce:	41 8b 45 00          	mov    0x0(%r13),%eax
    36d2:	41 c7 86 04 10 00 00 	movl   $0x7ffff,0x1004(%r14)
    36d9:	ff ff 07 00 
    36dd:	41 89 86 28 10 00 00 	mov    %eax,0x1028(%r14)
    36e4:	31 c0                	xor    %eax,%eax
    36e6:	e8 35 e9 ff ff       	callq  2020 <sfence@plt>
    36eb:	48 83 c4 08          	add    $0x8,%rsp
    36ef:	48 89 df             	mov    %rbx,%rdi
    36f2:	5b                   	pop    %rbx
    36f3:	5d                   	pop    %rbp
    36f4:	41 5c                	pop    %r12
    36f6:	41 5d                	pop    %r13
    36f8:	41 5e                	pop    %r14
    36fa:	41 5f                	pop    %r15
    36fc:	e9 cf e9 ff ff       	jmpq   20d0 <clwb@plt>
    3701:	0f 1f 44 00 00       	nopl   0x0(%rax,%rax,1)
    3706:	66 2e 0f 1f 84 00 00 	nopw   %cs:0x0(%rax,%rax,1)
    370d:	00 00 00 

0000000000003710 <arena_add_chunk>:
    3710:	41 56                	push   %r14
    3712:	41 55                	push   %r13
    3714:	41 54                	push   %r12
    3716:	55                   	push   %rbp
    3717:	49 89 fc             	mov    %rdi,%r12
    371a:	53                   	push   %rbx
    371b:	bf 01 00 00 00       	mov    $0x1,%edi
    3720:	e8 cb ea ff ff       	callq  21f0 <activate_more_chunks@plt>
    3725:	48 85 c0             	test   %rax,%rax
    3728:	0f 84 02 01 00 00    	je     3830 <arena_add_chunk+0x120>
    372e:	48 8d 78 48          	lea    0x48(%rax),%rdi
    3732:	48 89 c3             	mov    %rax,%rbx
    3735:	48 c7 40 40 00 00 00 	movq   $0x0,0x40(%rax)
    373c:	00 
    373d:	48 c7 80 f8 0f 00 00 	movq   $0x0,0xff8(%rax)
    3744:	00 00 00 00 
    3748:	48 8d a8 00 10 00 00 	lea    0x1000(%rax),%rbp
    374f:	48 ba 54 55 52 45 5f 	movabs $0x6f2f5f5f45525554,%rdx
    3756:	5f 2f 6f 
    3759:	48 83 e7 f8          	and    $0xfffffffffffffff8,%rdi
    375d:	66 0f 6f 05 2b 40 00 	movdqa 0x402b(%rip),%xmm0        # 7790 <__PRETTY_FUNCTION__.3890+0x18>
    3764:	00 
    3765:	29 f8                	sub    %edi,%eax
    3767:	8d 88 00 10 00 00    	lea    0x1000(%rax),%ecx
    376d:	31 c0                	xor    %eax,%eax
    376f:	c1 e9 03             	shr    $0x3,%ecx
    3772:	f3 48 ab             	rep stos %rax,%es:(%rdi)
    3775:	0f 11 43 01          	movups %xmm0,0x1(%rbx)
    3779:	b8 2a 2a 00 00       	mov    $0x2a2a,%eax
    377e:	48 89 53 21          	mov    %rdx,0x21(%rbx)
    3782:	c6 03 21             	movb   $0x21,(%rbx)
    3785:	66 0f 6f 05 13 40 00 	movdqa 0x4013(%rip),%xmm0        # 77a0 <__PRETTY_FUNCTION__.3890+0x28>
    378c:	00 
    378d:	66 89 43 2d          	mov    %ax,0x2d(%rbx)
    3791:	48 c7 43 38 00 00 00 	movq   $0x0,0x38(%rbx)
    3798:	00 
    3799:	31 c0                	xor    %eax,%eax
    379b:	0f 11 43 11          	movups %xmm0,0x11(%rbx)
    379f:	c7 43 29 2f 5f 5f 2a 	movl   $0x2a5f5f2f,0x29(%rbx)
    37a6:	c6 43 2f 00          	movb   $0x0,0x2f(%rbx)
    37aa:	e8 71 e8 ff ff       	callq  2020 <sfence@plt>
    37af:	be 00 10 00 00       	mov    $0x1000,%esi
    37b4:	48 89 df             	mov    %rbx,%rdi
    37b7:	e8 24 e8 ff ff       	callq  1fe0 <clwb_range@plt>
    37bc:	bf 30 00 00 00       	mov    $0x30,%edi
    37c1:	e8 9a e9 ff ff       	callq  2160 <malloc@plt>
    37c6:	66 0f ef c0          	pxor   %xmm0,%xmm0
    37ca:	48 89 68 18          	mov    %rbp,0x18(%rax)
    37ce:	c7 40 20 ff ff 07 00 	movl   $0x7ffff,0x20(%rax)
    37d5:	4c 89 60 28          	mov    %r12,0x28(%rax)
    37d9:	49 89 c5             	mov    %rax,%r13
    37dc:	c6 83 00 10 00 00 12 	movb   $0x12,0x1000(%rbx)
    37e3:	31 c0                	xor    %eax,%eax
    37e5:	c7 83 04 10 00 00 ff 	movl   $0x7ffff,0x1004(%rbx)
    37ec:	ff 07 00 
    37ef:	0f 11 83 08 10 00 00 	movups %xmm0,0x1008(%rbx)
    37f6:	0f 11 83 18 10 00 00 	movups %xmm0,0x1018(%rbx)
    37fd:	e8 1e e8 ff ff       	callq  2020 <sfence@plt>
    3802:	48 89 ef             	mov    %rbp,%rdi
    3805:	e8 c6 e8 ff ff       	callq  20d0 <clwb@plt>
    380a:	c6 03 22             	movb   $0x22,(%rbx)
    380d:	31 c0                	xor    %eax,%eax
    380f:	e8 0c e8 ff ff       	callq  2020 <sfence@plt>
    3814:	48 89 df             	mov    %rbx,%rdi
    3817:	e8 b4 e8 ff ff       	callq  20d0 <clwb@plt>
    381c:	5b                   	pop    %rbx
    381d:	4c 89 e8             	mov    %r13,%rax
    3820:	5d                   	pop    %rbp
    3821:	41 5c                	pop    %r12
    3823:	41 5d                	pop    %r13
    3825:	41 5e                	pop    %r14
    3827:	c3                   	retq   
    3828:	0f 1f 84 00 00 00 00 	nopl   0x0(%rax,%rax,1)
    382f:	00 
    3830:	45 31 ed             	xor    %r13d,%r13d
    3833:	eb e7                	jmp    381c <arena_add_chunk+0x10c>
    3835:	90                   	nop
    3836:	66 2e 0f 1f 84 00 00 	nopw   %cs:0x0(%rax,%rax,1)
    383d:	00 00 00 

0000000000003840 <arena_create_run>:
    3840:	85 d2                	test   %edx,%edx
    3842:	41 56                	push   %r14
    3844:	41 55                	push   %r13
    3846:	41 54                	push   %r12
    3848:	55                   	push   %rbp
    3849:	53                   	push   %rbx
    384a:	0f 84 1c 02 00 00    	je     3a6c <arena_create_run+0x22c>
    3850:	48 8b 87 48 08 00 00 	mov    0x848(%rdi),%rax
    3857:	49 89 fc             	mov    %rdi,%r12
    385a:	48 89 f3             	mov    %rsi,%rbx
    385d:	89 d5                	mov    %edx,%ebp
    385f:	48 85 c0             	test   %rax,%rax
    3862:	0f 84 e8 01 00 00    	je     3a50 <arena_create_run+0x210>
    3868:	8b 48 20             	mov    0x20(%rax),%ecx
    386b:	83 f9 01             	cmp    $0x1,%ecx
    386e:	74 60                	je     38d0 <arena_create_run+0x90>
    3870:	45 31 ed             	xor    %r13d,%r13d
    3873:	eb 13                	jmp    3888 <arena_create_run+0x48>
    3875:	0f 1f 00             	nopl   (%rax)
    3878:	48 89 f0             	mov    %rsi,%rax
    387b:	48 85 c0             	test   %rax,%rax
    387e:	74 1e                	je     389e <arena_create_run+0x5e>
    3880:	8b 48 20             	mov    0x20(%rax),%ecx
    3883:	83 f9 01             	cmp    $0x1,%ecx
    3886:	74 48                	je     38d0 <arena_create_run+0x90>
    3888:	85 c9                	test   %ecx,%ecx
    388a:	48 8b 10             	mov    (%rax),%rdx
    388d:	48 8b 70 08          	mov    0x8(%rax),%rsi
    3891:	74 e5                	je     3878 <arena_create_run+0x38>
    3893:	49 89 c5             	mov    %rax,%r13
    3896:	48 89 d0             	mov    %rdx,%rax
    3899:	48 85 c0             	test   %rax,%rax
    389c:	75 e2                	jne    3880 <arena_create_run+0x40>
    389e:	4d 85 ed             	test   %r13,%r13
    38a1:	0f 84 a9 01 00 00    	je     3a50 <arena_create_run+0x210>
    38a7:	41 8b 4d 20          	mov    0x20(%r13),%ecx
    38ab:	85 c9                	test   %ecx,%ecx
    38ad:	75 24                	jne    38d3 <arena_create_run+0x93>
    38af:	48 8d 0d aa 3e 00 00 	lea    0x3eaa(%rip),%rcx        # 7760 <__PRETTY_FUNCTION__.3920>
    38b6:	48 8d 35 8e 3d 00 00 	lea    0x3d8e(%rip),%rsi        # 764b <__PRETTY_FUNCTION__.3929+0xb>
    38bd:	48 8d 3d 9f 3d 00 00 	lea    0x3d9f(%rip),%rdi        # 7663 <__PRETTY_FUNCTION__.3929+0x23>
    38c4:	ba 3f 01 00 00       	mov    $0x13f,%edx
    38c9:	e8 b2 e7 ff ff       	callq  2080 <__assert_fail@plt>
    38ce:	66 90                	xchg   %ax,%ax
    38d0:	49 89 c5             	mov    %rax,%r13
    38d3:	49 8d b4 24 48 08 00 	lea    0x848(%r12),%rsi
    38da:	00 
    38db:	4c 89 ef             	mov    %r13,%rdi
    38de:	e8 ed e6 ff ff       	callq  1fd0 <tree_del@plt>
    38e3:	bf 40 00 00 00       	mov    $0x40,%edi
    38e8:	e8 73 e8 ff ff       	callq  2160 <malloc@plt>
    38ed:	31 d2                	xor    %edx,%edx
    38ef:	49 89 c6             	mov    %rax,%r14
    38f2:	48 89 58 20          	mov    %rbx,0x20(%rax)
    38f6:	66 89 68 28          	mov    %bp,0x28(%rax)
    38fa:	b8 c0 0f 00 00       	mov    $0xfc0,%eax
    38ff:	49 c7 46 2e 00 00 00 	movq   $0x0,0x2e(%r14)
    3906:	00 
    3907:	f7 f5                	div    %ebp
    3909:	66 41 89 46 2c       	mov    %ax,0x2c(%r14)
    390e:	66 41 89 46 2a       	mov    %ax,0x2a(%r14)
    3913:	41 8b 45 20          	mov    0x20(%r13),%eax
    3917:	83 f8 01             	cmp    $0x1,%eax
    391a:	0f 86 a8 00 00 00    	jbe    39c8 <arena_create_run+0x188>
    3920:	8d 98 ff ff 0f 00    	lea    0xfffff(%rax),%ebx
    3926:	66 0f ef c0          	pxor   %xmm0,%xmm0
    392a:	ba ff ff ff ff       	mov    $0xffffffff,%edx
    392f:	c1 e3 0c             	shl    $0xc,%ebx
    3932:	49 03 5d 18          	add    0x18(%r13),%rbx
    3936:	49 89 5e 18          	mov    %rbx,0x18(%r14)
    393a:	0f 11 03             	movups %xmm0,(%rbx)
    393d:	c6 03 42             	movb   $0x42,(%rbx)
    3940:	66 89 6b 02          	mov    %bp,0x2(%rbx)
    3944:	0f 11 43 30          	movups %xmm0,0x30(%rbx)
    3948:	0f 11 43 10          	movups %xmm0,0x10(%rbx)
    394c:	0f 11 43 20          	movups %xmm0,0x20(%rbx)
    3950:	41 8b 04 24          	mov    (%r12),%eax
    3954:	66 89 53 38          	mov    %dx,0x38(%rbx)
    3958:	4c 89 73 08          	mov    %r14,0x8(%rbx)
    395c:	66 89 43 3a          	mov    %ax,0x3a(%rbx)
    3960:	48 8b 05 71 56 20 00 	mov    0x205671(%rip),%rax        # 208fd8 <current_version@@Base-0x9e8>
    3967:	48 8b 00             	mov    (%rax),%rax
    396a:	89 43 3c             	mov    %eax,0x3c(%rbx)
    396d:	31 c0                	xor    %eax,%eax
    396f:	e8 ac e6 ff ff       	callq  2020 <sfence@plt>
    3974:	48 89 df             	mov    %rbx,%rdi
    3977:	e8 54 e7 ff ff       	callq  20d0 <clwb@plt>
    397c:	41 8b 45 20          	mov    0x20(%r13),%eax
    3980:	49 8b 55 18          	mov    0x18(%r13),%rdx
    3984:	83 e8 01             	sub    $0x1,%eax
    3987:	41 89 45 20          	mov    %eax,0x20(%r13)
    398b:	89 42 04             	mov    %eax,0x4(%rdx)
    398e:	31 c0                	xor    %eax,%eax
    3990:	e8 8b e6 ff ff       	callq  2020 <sfence@plt>
    3995:	49 8b 7d 18          	mov    0x18(%r13),%rdi
    3999:	e8 32 e7 ff ff       	callq  20d0 <clwb@plt>
    399e:	48 8b 35 03 56 20 00 	mov    0x205603(%rip),%rsi        # 208fa8 <block_node_compare@@Base+0x2059f8>
    39a5:	49 8d 94 24 48 08 00 	lea    0x848(%r12),%rdx
    39ac:	00 
    39ad:	4c 89 ef             	mov    %r13,%rdi
    39b0:	e8 0b e9 ff ff       	callq  22c0 <tree_add@plt>
    39b5:	5b                   	pop    %rbx
    39b6:	4c 89 f0             	mov    %r14,%rax
    39b9:	5d                   	pop    %rbp
    39ba:	41 5c                	pop    %r12
    39bc:	41 5d                	pop    %r13
    39be:	41 5e                	pop    %r14
    39c0:	c3                   	retq   
    39c1:	0f 1f 80 00 00 00 00 	nopl   0x0(%rax)
    39c8:	49 8b 5d 18          	mov    0x18(%r13),%rbx
    39cc:	4c 89 ef             	mov    %r13,%rdi
    39cf:	49 89 5e 18          	mov    %rbx,0x18(%r14)
    39d3:	e8 08 e5 ff ff       	callq  1ee0 <free@plt>
    39d8:	66 0f ef c0          	pxor   %xmm0,%xmm0
    39dc:	b8 ff ff ff ff       	mov    $0xffffffff,%eax
    39e1:	0f 11 03             	movups %xmm0,(%rbx)
    39e4:	4c 89 73 08          	mov    %r14,0x8(%rbx)
    39e8:	0f 11 43 30          	movups %xmm0,0x30(%rbx)
    39ec:	0f 11 43 10          	movups %xmm0,0x10(%rbx)
    39f0:	0f 11 43 20          	movups %xmm0,0x20(%rbx)
    39f4:	66 89 43 38          	mov    %ax,0x38(%rbx)
    39f8:	41 8b 04 24          	mov    (%r12),%eax
    39fc:	66 89 43 3a          	mov    %ax,0x3a(%rbx)
    3a00:	48 8b 05 d1 55 20 00 	mov    0x2055d1(%rip),%rax        # 208fd8 <current_version@@Base-0x9e8>
    3a07:	48 8b 00             	mov    (%rax),%rax
    3a0a:	c6 03 42             	movb   $0x42,(%rbx)
    3a0d:	66 89 6b 02          	mov    %bp,0x2(%rbx)
    3a11:	89 43 3c             	mov    %eax,0x3c(%rbx)
    3a14:	31 c0                	xor    %eax,%eax
    3a16:	e8 05 e6 ff ff       	callq  2020 <sfence@plt>
    3a1b:	48 89 df             	mov    %rbx,%rdi
    3a1e:	e8 ad e6 ff ff       	callq  20d0 <clwb@plt>
    3a23:	80 3b 42             	cmpb   $0x42,(%rbx)
    3a26:	74 8d                	je     39b5 <arena_create_run+0x175>
    3a28:	48 8d 0d 31 3d 00 00 	lea    0x3d31(%rip),%rcx        # 7760 <__PRETTY_FUNCTION__.3920>
    3a2f:	48 8d 35 15 3c 00 00 	lea    0x3c15(%rip),%rsi        # 764b <__PRETTY_FUNCTION__.3929+0xb>
    3a36:	48 8d 3d 5b 3c 00 00 	lea    0x3c5b(%rip),%rdi        # 7698 <__PRETTY_FUNCTION__.3929+0x58>
    3a3d:	ba 77 01 00 00       	mov    $0x177,%edx
    3a42:	e8 39 e6 ff ff       	callq  2080 <__assert_fail@plt>
    3a47:	66 0f 1f 84 00 00 00 	nopw   0x0(%rax,%rax,1)
    3a4e:	00 00 
    3a50:	4c 89 e7             	mov    %r12,%rdi
    3a53:	e8 a8 e7 ff ff       	callq  2200 <arena_add_chunk@plt>
    3a58:	48 85 c0             	test   %rax,%rax
    3a5b:	49 89 c5             	mov    %rax,%r13
    3a5e:	0f 85 7f fe ff ff    	jne    38e3 <arena_create_run+0xa3>
    3a64:	45 31 f6             	xor    %r14d,%r14d
    3a67:	e9 49 ff ff ff       	jmpq   39b5 <arena_create_run+0x175>
    3a6c:	48 8d 0d ed 3c 00 00 	lea    0x3ced(%rip),%rcx        # 7760 <__PRETTY_FUNCTION__.3920>
    3a73:	48 8d 35 d1 3b 00 00 	lea    0x3bd1(%rip),%rsi        # 764b <__PRETTY_FUNCTION__.3929+0xb>
    3a7a:	48 8d 3d d6 3b 00 00 	lea    0x3bd6(%rip),%rdi        # 7657 <__PRETTY_FUNCTION__.3929+0x17>
    3a81:	ba 32 01 00 00       	mov    $0x132,%edx
    3a86:	e8 f5 e5 ff ff       	callq  2080 <__assert_fail@plt>
    3a8b:	0f 1f 44 00 00       	nopl   0x0(%rax,%rax,1)

0000000000003a90 <arena_create_block>:
    3a90:	41 55                	push   %r13
    3a92:	41 54                	push   %r12
    3a94:	49 89 fc             	mov    %rdi,%r12
    3a97:	55                   	push   %rbp
    3a98:	53                   	push   %rbx
    3a99:	89 f3                	mov    %esi,%ebx
    3a9b:	48 83 ec 08          	sub    $0x8,%rsp
    3a9f:	48 8b 87 48 08 00 00 	mov    0x848(%rdi),%rax
    3aa6:	48 85 c0             	test   %rax,%rax
    3aa9:	0f 84 09 01 00 00    	je     3bb8 <arena_create_block+0x128>
    3aaf:	8b 48 20             	mov    0x20(%rax),%ecx
    3ab2:	39 ce                	cmp    %ecx,%esi
    3ab4:	74 62                	je     3b18 <arena_create_block+0x88>
    3ab6:	31 ed                	xor    %ebp,%ebp
    3ab8:	eb 15                	jmp    3acf <arena_create_block+0x3f>
    3aba:	66 0f 1f 44 00 00    	nopw   0x0(%rax,%rax,1)
    3ac0:	48 89 f8             	mov    %rdi,%rax
    3ac3:	48 85 c0             	test   %rax,%rax
    3ac6:	74 1d                	je     3ae5 <arena_create_block+0x55>
    3ac8:	8b 48 20             	mov    0x20(%rax),%ecx
    3acb:	39 cb                	cmp    %ecx,%ebx
    3acd:	74 49                	je     3b18 <arena_create_block+0x88>
    3acf:	39 cb                	cmp    %ecx,%ebx
    3ad1:	48 8b 30             	mov    (%rax),%rsi
    3ad4:	48 8b 78 08          	mov    0x8(%rax),%rdi
    3ad8:	77 e6                	ja     3ac0 <arena_create_block+0x30>
    3ada:	48 89 c5             	mov    %rax,%rbp
    3add:	48 89 f0             	mov    %rsi,%rax
    3ae0:	48 85 c0             	test   %rax,%rax
    3ae3:	75 e3                	jne    3ac8 <arena_create_block+0x38>
    3ae5:	48 85 ed             	test   %rbp,%rbp
    3ae8:	0f 84 ca 00 00 00    	je     3bb8 <arena_create_block+0x128>
    3aee:	39 5d 20             	cmp    %ebx,0x20(%rbp)
    3af1:	73 28                	jae    3b1b <arena_create_block+0x8b>
    3af3:	48 8d 0d 46 3c 00 00 	lea    0x3c46(%rip),%rcx        # 7740 <__PRETTY_FUNCTION__.3927>
    3afa:	48 8d 35 4a 3b 00 00 	lea    0x3b4a(%rip),%rsi        # 764b <__PRETTY_FUNCTION__.3929+0xb>
    3b01:	48 8d 3d c8 3b 00 00 	lea    0x3bc8(%rip),%rdi        # 76d0 <__PRETTY_FUNCTION__.3929+0x90>
    3b08:	ba 8c 01 00 00       	mov    $0x18c,%edx
    3b0d:	e8 6e e5 ff ff       	callq  2080 <__assert_fail@plt>
    3b12:	66 0f 1f 44 00 00    	nopw   0x0(%rax,%rax,1)
    3b18:	48 89 c5             	mov    %rax,%rbp
    3b1b:	49 8d b4 24 48 08 00 	lea    0x848(%r12),%rsi
    3b22:	00 
    3b23:	48 89 ef             	mov    %rbp,%rdi
    3b26:	e8 a5 e4 ff ff       	callq  1fd0 <tree_del@plt>
    3b2b:	8b 45 20             	mov    0x20(%rbp),%eax
    3b2e:	4c 8b 6d 18          	mov    0x18(%rbp),%r13
    3b32:	39 d8                	cmp    %ebx,%eax
    3b34:	77 12                	ja     3b48 <arena_create_block+0xb8>
    3b36:	48 83 c4 08          	add    $0x8,%rsp
    3b3a:	4c 89 e8             	mov    %r13,%rax
    3b3d:	5b                   	pop    %rbx
    3b3e:	5d                   	pop    %rbp
    3b3f:	41 5c                	pop    %r12
    3b41:	41 5d                	pop    %r13
    3b43:	c3                   	retq   
    3b44:	0f 1f 40 00          	nopl   0x0(%rax)
    3b48:	29 d8                	sub    %ebx,%eax
    3b4a:	c1 e0 0c             	shl    $0xc,%eax
    3b4d:	49 01 c5             	add    %rax,%r13
    3b50:	41 c6 45 00 12       	movb   $0x12,0x0(%r13)
    3b55:	41 8b 04 24          	mov    (%r12),%eax
    3b59:	41 89 5d 04          	mov    %ebx,0x4(%r13)
    3b5d:	41 89 45 28          	mov    %eax,0x28(%r13)
    3b61:	31 c0                	xor    %eax,%eax
    3b63:	e8 b8 e4 ff ff       	callq  2020 <sfence@plt>
    3b68:	4c 89 ef             	mov    %r13,%rdi
    3b6b:	e8 60 e5 ff ff       	callq  20d0 <clwb@plt>
    3b70:	48 8b 55 18          	mov    0x18(%rbp),%rdx
    3b74:	29 5d 20             	sub    %ebx,0x20(%rbp)
    3b77:	29 5a 04             	sub    %ebx,0x4(%rdx)
    3b7a:	74 58                	je     3bd4 <arena_create_block+0x144>
    3b7c:	31 c0                	xor    %eax,%eax
    3b7e:	e8 9d e4 ff ff       	callq  2020 <sfence@plt>
    3b83:	48 8b 7d 18          	mov    0x18(%rbp),%rdi
    3b87:	e8 44 e5 ff ff       	callq  20d0 <clwb@plt>
    3b8c:	48 8b 35 15 54 20 00 	mov    0x205415(%rip),%rsi        # 208fa8 <block_node_compare@@Base+0x2059f8>
    3b93:	49 8d 94 24 48 08 00 	lea    0x848(%r12),%rdx
    3b9a:	00 
    3b9b:	48 89 ef             	mov    %rbp,%rdi
    3b9e:	e8 1d e7 ff ff       	callq  22c0 <tree_add@plt>
    3ba3:	48 83 c4 08          	add    $0x8,%rsp
    3ba7:	4c 89 e8             	mov    %r13,%rax
    3baa:	5b                   	pop    %rbx
    3bab:	5d                   	pop    %rbp
    3bac:	41 5c                	pop    %r12
    3bae:	41 5d                	pop    %r13
    3bb0:	c3                   	retq   
    3bb1:	0f 1f 80 00 00 00 00 	nopl   0x0(%rax)
    3bb8:	4c 89 e7             	mov    %r12,%rdi
    3bbb:	e8 40 e6 ff ff       	callq  2200 <arena_add_chunk@plt>
    3bc0:	48 85 c0             	test   %rax,%rax
    3bc3:	48 89 c5             	mov    %rax,%rbp
    3bc6:	0f 85 5f ff ff ff    	jne    3b2b <arena_create_block+0x9b>
    3bcc:	45 31 ed             	xor    %r13d,%r13d
    3bcf:	e9 62 ff ff ff       	jmpq   3b36 <arena_create_block+0xa6>
    3bd4:	48 8d 0d 65 3b 00 00 	lea    0x3b65(%rip),%rcx        # 7740 <__PRETTY_FUNCTION__.3927>
    3bdb:	48 8d 35 69 3a 00 00 	lea    0x3a69(%rip),%rsi        # 764b <__PRETTY_FUNCTION__.3929+0xb>
    3be2:	48 8d 3d 07 3b 00 00 	lea    0x3b07(%rip),%rdi        # 76f0 <__PRETTY_FUNCTION__.3929+0xb0>
    3be9:	ba 9b 01 00 00       	mov    $0x19b,%edx
    3bee:	e8 8d e4 ff ff       	callq  2080 <__assert_fail@plt>
    3bf3:	0f 1f 00             	nopl   (%rax)
    3bf6:	66 2e 0f 1f 84 00 00 	nopw   %cs:0x0(%rax,%rax,1)
    3bfd:	00 00 00 

0000000000003c00 <arena_allocate>:
    3c00:	55                   	push   %rbp
    3c01:	53                   	push   %rbx
    3c02:	48 83 ec 08          	sub    $0x8,%rsp
    3c06:	81 fe c0 ff ff 3f    	cmp    $0x3fffffc0,%esi
    3c0c:	0f 87 79 01 00 00    	ja     3d8b <arena_allocate+0x18b>
    3c12:	81 fe c0 07 00 00    	cmp    $0x7c0,%esi
    3c18:	0f 87 d2 00 00 00    	ja     3cf0 <arena_allocate+0xf0>
    3c1e:	89 f5                	mov    %esi,%ebp
    3c20:	83 e5 c0             	and    $0xffffffc0,%ebp
    3c23:	83 e6 3f             	and    $0x3f,%esi
    3c26:	8d 45 40             	lea    0x40(%rbp),%eax
    3c29:	0f 45 e8             	cmovne %eax,%ebp
    3c2c:	89 e8                	mov    %ebp,%eax
    3c2e:	c1 e8 06             	shr    $0x6,%eax
    3c31:	8d 48 ff             	lea    -0x1(%rax),%ecx
    3c34:	48 89 c8             	mov    %rcx,%rax
    3c37:	83 84 8f c8 07 00 00 	addl   $0x1,0x7c8(%rdi,%rcx,4)
    3c3e:	01 
    3c3f:	48 c1 e0 06          	shl    $0x6,%rax
    3c43:	48 8d 1c 07          	lea    (%rdi,%rax,1),%rbx
    3c47:	8b 53 10             	mov    0x10(%rbx),%edx
    3c4a:	85 d2                	test   %edx,%edx
    3c4c:	0f 84 ee 00 00 00    	je     3d40 <arena_allocate+0x140>
    3c52:	4c 8b 4b 08          	mov    0x8(%rbx),%r9
    3c56:	31 d2                	xor    %edx,%edx
    3c58:	b8 c0 0f 00 00       	mov    $0xfc0,%eax
    3c5d:	f7 f5                	div    %ebp
    3c5f:	4d 85 c9             	test   %r9,%r9
    3c62:	74 6c                	je     3cd0 <arena_allocate+0xd0>
    3c64:	41 0f b7 51 2a       	movzwl 0x2a(%r9),%edx
    3c69:	66 85 d2             	test   %dx,%dx
    3c6c:	74 62                	je     3cd0 <arena_allocate+0xd0>
    3c6e:	45 0f b6 41 2e       	movzbl 0x2e(%r9),%r8d
    3c73:	31 f6                	xor    %esi,%esi
    3c75:	41 ba 01 00 00 00    	mov    $0x1,%r10d
    3c7b:	41 f6 c0 01          	test   $0x1,%r8b
    3c7f:	75 2f                	jne    3cb0 <arena_allocate+0xb0>
    3c81:	e9 f2 00 00 00       	jmpq   3d78 <arena_allocate+0x178>
    3c86:	66 2e 0f 1f 84 00 00 	nopw   %cs:0x0(%rax,%rax,1)
    3c8d:	00 00 00 
    3c90:	89 f1                	mov    %esi,%ecx
    3c92:	44 89 d7             	mov    %r10d,%edi
    3c95:	83 e1 07             	and    $0x7,%ecx
    3c98:	d3 e7                	shl    %cl,%edi
    3c9a:	89 f1                	mov    %esi,%ecx
    3c9c:	c1 f9 03             	sar    $0x3,%ecx
    3c9f:	41 89 fb             	mov    %edi,%r11d
    3ca2:	48 63 c9             	movslq %ecx,%rcx
    3ca5:	45 0f b6 44 09 2e    	movzbl 0x2e(%r9,%rcx,1),%r8d
    3cab:	41 84 f8             	test   %dil,%r8b
    3cae:	74 70                	je     3d20 <arena_allocate+0x120>
    3cb0:	83 c6 01             	add    $0x1,%esi
    3cb3:	39 c6                	cmp    %eax,%esi
    3cb5:	75 d9                	jne    3c90 <arena_allocate+0x90>
    3cb7:	31 c0                	xor    %eax,%eax
    3cb9:	83 ea 01             	sub    $0x1,%edx
    3cbc:	66 41 89 51 2a       	mov    %dx,0x2a(%r9)
    3cc1:	83 6b 10 01          	subl   $0x1,0x10(%rbx)
    3cc5:	48 83 c4 08          	add    $0x8,%rsp
    3cc9:	5b                   	pop    %rbx
    3cca:	5d                   	pop    %rbp
    3ccb:	c3                   	retq   
    3ccc:	0f 1f 40 00          	nopl   0x0(%rax)
    3cd0:	48 c1 e1 06          	shl    $0x6,%rcx
    3cd4:	48 01 cf             	add    %rcx,%rdi
    3cd7:	4c 8b 4f 18          	mov    0x18(%rdi),%r9
    3cdb:	49 8b 51 38          	mov    0x38(%r9),%rdx
    3cdf:	48 89 57 18          	mov    %rdx,0x18(%rdi)
    3ce3:	4c 89 4b 08          	mov    %r9,0x8(%rbx)
    3ce7:	41 0f b7 51 2a       	movzwl 0x2a(%r9),%edx
    3cec:	eb 80                	jmp    3c6e <arena_allocate+0x6e>
    3cee:	66 90                	xchg   %ax,%ax
    3cf0:	89 f0                	mov    %esi,%eax
    3cf2:	25 00 f0 ff ff       	and    $0xfffff000,%eax
    3cf7:	81 e6 ff 0f 00 00    	and    $0xfff,%esi
    3cfd:	8d 90 00 10 00 00    	lea    0x1000(%rax),%edx
    3d03:	0f 45 c2             	cmovne %edx,%eax
    3d06:	c1 e8 0c             	shr    $0xc,%eax
    3d09:	89 c6                	mov    %eax,%esi
    3d0b:	e8 a0 e2 ff ff       	callq  1fb0 <arena_create_block@plt>
    3d10:	48 85 c0             	test   %rax,%rax
    3d13:	74 6f                	je     3d84 <arena_allocate+0x184>
    3d15:	48 83 c4 08          	add    $0x8,%rsp
    3d19:	48 83 c0 40          	add    $0x40,%rax
    3d1d:	5b                   	pop    %rbx
    3d1e:	5d                   	pop    %rbp
    3d1f:	c3                   	retq   
    3d20:	0f af f5             	imul   %ebp,%esi
    3d23:	45 09 d8             	or     %r11d,%r8d
    3d26:	45 88 44 09 2e       	mov    %r8b,0x2e(%r9,%rcx,1)
    3d2b:	49 8b 41 18          	mov    0x18(%r9),%rax
    3d2f:	48 8d 44 30 40       	lea    0x40(%rax,%rsi,1),%rax
    3d34:	eb 83                	jmp    3cb9 <arena_allocate+0xb9>
    3d36:	66 2e 0f 1f 84 00 00 	nopw   %cs:0x0(%rax,%rax,1)
    3d3d:	00 00 00 
    3d40:	48 8d 74 07 08       	lea    0x8(%rdi,%rax,1),%rsi
    3d45:	89 ea                	mov    %ebp,%edx
    3d47:	e8 f4 e4 ff ff       	callq  2240 <arena_create_run@plt>
    3d4c:	48 85 c0             	test   %rax,%rax
    3d4f:	49 89 c1             	mov    %rax,%r9
    3d52:	74 30                	je     3d84 <arena_allocate+0x184>
    3d54:	48 89 43 08          	mov    %rax,0x8(%rbx)
    3d58:	31 d2                	xor    %edx,%edx
    3d5a:	b8 c0 0f 00 00       	mov    $0xfc0,%eax
    3d5f:	f7 f5                	div    %ebp
    3d61:	66 83 43 14 01       	addw   $0x1,0x14(%rbx)
    3d66:	01 43 10             	add    %eax,0x10(%rbx)
    3d69:	41 0f b7 51 2a       	movzwl 0x2a(%r9),%edx
    3d6e:	e9 fb fe ff ff       	jmpq   3c6e <arena_allocate+0x6e>
    3d73:	0f 1f 44 00 00       	nopl   0x0(%rax,%rax,1)
    3d78:	31 f6                	xor    %esi,%esi
    3d7a:	41 bb 01 00 00 00    	mov    $0x1,%r11d
    3d80:	31 c9                	xor    %ecx,%ecx
    3d82:	eb 9f                	jmp    3d23 <arena_allocate+0x123>
    3d84:	31 c0                	xor    %eax,%eax
    3d86:	e9 3a ff ff ff       	jmpq   3cc5 <arena_allocate+0xc5>
    3d8b:	48 8d 0d e6 39 00 00 	lea    0x39e6(%rip),%rcx        # 7778 <__PRETTY_FUNCTION__.3890>
    3d92:	48 8d 35 b2 38 00 00 	lea    0x38b2(%rip),%rsi        # 764b <__PRETTY_FUNCTION__.3929+0xb>
    3d99:	48 8d 3d dc 38 00 00 	lea    0x38dc(%rip),%rdi        # 767c <__PRETTY_FUNCTION__.3929+0x3c>
    3da0:	ba 62 00 00 00       	mov    $0x62,%edx
    3da5:	e8 d6 e2 ff ff       	callq  2080 <__assert_fail@plt>
    3daa:	66 0f 1f 44 00 00    	nopw   0x0(%rax,%rax,1)

0000000000003db0 <arena_create_run_header>:
    3db0:	55                   	push   %rbp
    3db1:	53                   	push   %rbx
    3db2:	48 89 fb             	mov    %rdi,%rbx
    3db5:	48 83 ec 08          	sub    $0x8,%rsp
    3db9:	48 8b 05 10 52 20 00 	mov    0x205210(%rip),%rax        # 208fd0 <arenas@@Base-0x990>
    3dc0:	0f b7 57 3a          	movzwl 0x3a(%rdi),%edx
    3dc4:	bf 40 00 00 00       	mov    $0x40,%edi
    3dc9:	48 8b 00             	mov    (%rax),%rax
    3dcc:	48 8b 2c d0          	mov    (%rax,%rdx,8),%rbp
    3dd0:	e8 8b e3 ff ff       	callq  2160 <malloc@plt>
    3dd5:	0f b7 4b 02          	movzwl 0x2(%rbx),%ecx
    3dd9:	48 89 c7             	mov    %rax,%rdi
    3ddc:	48 8b 43 30          	mov    0x30(%rbx),%rax
    3de0:	48 89 5f 18          	mov    %rbx,0x18(%rdi)
    3de4:	48 89 47 2e          	mov    %rax,0x2e(%rdi)
    3de8:	89 c8                	mov    %ecx,%eax
    3dea:	66 89 4f 28          	mov    %cx,0x28(%rdi)
    3dee:	66 c1 e8 06          	shr    $0x6,%ax
    3df2:	0f b7 c0             	movzwl %ax,%eax
    3df5:	83 e8 01             	sub    $0x1,%eax
    3df8:	48 98                	cltq   
    3dfa:	48 c1 e0 06          	shl    $0x6,%rax
    3dfe:	48 8d 44 05 08       	lea    0x8(%rbp,%rax,1),%rax
    3e03:	48 89 47 20          	mov    %rax,0x20(%rdi)
    3e07:	31 c0                	xor    %eax,%eax
    3e09:	66 89 47 2a          	mov    %ax,0x2a(%rdi)
    3e0d:	b8 c0 0f 00 00       	mov    $0xfc0,%eax
    3e12:	99                   	cltd   
    3e13:	f7 f9                	idiv   %ecx
    3e15:	85 c0                	test   %eax,%eax
    3e17:	66 89 47 2c          	mov    %ax,0x2c(%rdi)
    3e1b:	74 26                	je     3e43 <arena_create_run_header+0x93>
    3e1d:	31 c9                	xor    %ecx,%ecx
    3e1f:	90                   	nop
    3e20:	89 ce                	mov    %ecx,%esi
    3e22:	89 ca                	mov    %ecx,%edx
    3e24:	c1 fe 03             	sar    $0x3,%esi
    3e27:	83 e2 07             	and    $0x7,%edx
    3e2a:	48 63 f6             	movslq %esi,%rsi
    3e2d:	0f be 74 37 2e       	movsbl 0x2e(%rdi,%rsi,1),%esi
    3e32:	0f a3 d6             	bt     %edx,%esi
    3e35:	72 05                	jb     3e3c <arena_create_run_header+0x8c>
    3e37:	66 83 47 2a 01       	addw   $0x1,0x2a(%rdi)
    3e3c:	83 c1 01             	add    $0x1,%ecx
    3e3f:	39 c8                	cmp    %ecx,%eax
    3e41:	75 dd                	jne    3e20 <arena_create_run_header+0x70>
    3e43:	48 c7 47 38 00 00 00 	movq   $0x0,0x38(%rdi)
    3e4a:	00 
    3e4b:	48 83 c4 08          	add    $0x8,%rsp
    3e4f:	48 89 f8             	mov    %rdi,%rax
    3e52:	5b                   	pop    %rbx
    3e53:	5d                   	pop    %rbp
    3e54:	c3                   	retq   
    3e55:	90                   	nop
    3e56:	66 2e 0f 1f 84 00 00 	nopw   %cs:0x0(%rax,%rax,1)
    3e5d:	00 00 00 

0000000000003e60 <arena_free>:
    3e60:	41 57                	push   %r15
    3e62:	41 56                	push   %r14
    3e64:	49 89 d6             	mov    %rdx,%r14
    3e67:	41 55                	push   %r13
    3e69:	41 54                	push   %r12
    3e6b:	49 89 f5             	mov    %rsi,%r13
    3e6e:	55                   	push   %rbp
    3e6f:	53                   	push   %rbx
    3e70:	48 89 fb             	mov    %rdi,%rbx
    3e73:	48 81 e3 00 f0 ff ff 	and    $0xfffffffffffff000,%rbx
    3e7a:	48 89 fd             	mov    %rdi,%rbp
    3e7d:	48 83 ec 28          	sub    $0x28,%rsp
    3e81:	0f b6 3b             	movzbl (%rbx),%edi
    3e84:	83 e7 f0             	and    $0xfffffff0,%edi
    3e87:	40 80 ff 30          	cmp    $0x30,%dil
    3e8b:	0f 84 bf 01 00 00    	je     4050 <arena_free+0x1f0>
    3e91:	40 80 ff 40          	cmp    $0x40,%dil
    3e95:	74 19                	je     3eb0 <arena_free+0x50>
    3e97:	48 83 c4 28          	add    $0x28,%rsp
    3e9b:	5b                   	pop    %rbx
    3e9c:	5d                   	pop    %rbp
    3e9d:	41 5c                	pop    %r12
    3e9f:	41 5d                	pop    %r13
    3ea1:	41 5e                	pop    %r14
    3ea3:	41 5f                	pop    %r15
    3ea5:	c3                   	retq   
    3ea6:	66 2e 0f 1f 84 00 00 	nopw   %cs:0x0(%rax,%rax,1)
    3ead:	00 00 00 
    3eb0:	be 42 00 00 00       	mov    $0x42,%esi
    3eb5:	ba 44 00 00 00       	mov    $0x44,%edx
    3eba:	89 f0                	mov    %esi,%eax
    3ebc:	f0 0f b0 13          	lock cmpxchg %dl,(%rbx)
    3ec0:	75 f8                	jne    3eba <arena_free+0x5a>
    3ec2:	4c 8b 3d 0f 51 20 00 	mov    0x20510f(%rip),%r15        # 208fd8 <current_version@@Base-0x9e8>
    3ec9:	8b 43 3c             	mov    0x3c(%rbx),%eax
    3ecc:	4c 8b 63 08          	mov    0x8(%rbx),%r12
    3ed0:	49 3b 07             	cmp    (%r15),%rax
    3ed3:	0f 82 2f 03 00 00    	jb     4208 <arena_free+0x3a8>
    3ed9:	48 8d 43 40          	lea    0x40(%rbx),%rax
    3edd:	41 0f b7 74 24 28    	movzwl 0x28(%r12),%esi
    3ee3:	31 d2                	xor    %edx,%edx
    3ee5:	4d 8b 7c 24 20       	mov    0x20(%r12),%r15
    3eea:	48 29 c5             	sub    %rax,%rbp
    3eed:	48 89 e8             	mov    %rbp,%rax
    3ef0:	48 f7 f6             	div    %rsi
    3ef3:	4d 85 ed             	test   %r13,%r13
    3ef6:	48 89 c5             	mov    %rax,%rbp
    3ef9:	66 89 43 38          	mov    %ax,0x38(%rbx)
    3efd:	0f 84 b7 00 00 00    	je     3fba <arena_free+0x15a>
    3f03:	48 8b 15 76 50 20 00 	mov    0x205076(%rip),%rdx        # 208f80 <nvm_start@@Base-0xa68>
    3f0a:	4c 89 ee             	mov    %r13,%rsi
    3f0d:	48 8b 02             	mov    (%rdx),%rax
    3f10:	48 29 c6             	sub    %rax,%rsi
    3f13:	4d 85 f6             	test   %r14,%r14
    3f16:	48 89 73 10          	mov    %rsi,0x10(%rbx)
    3f1a:	0f 84 78 02 00 00    	je     4198 <arena_free+0x338>
    3f20:	4c 89 f6             	mov    %r14,%rsi
    3f23:	48 29 c6             	sub    %rax,%rsi
    3f26:	48 85 c9             	test   %rcx,%rcx
    3f29:	48 89 73 18          	mov    %rsi,0x18(%rbx)
    3f2d:	0f 84 e5 03 00 00    	je     4318 <arena_free+0x4b8>
    3f33:	48 89 ce             	mov    %rcx,%rsi
    3f36:	48 29 c6             	sub    %rax,%rsi
    3f39:	4d 85 c0             	test   %r8,%r8
    3f3c:	48 89 73 20          	mov    %rsi,0x20(%rbx)
    3f40:	0f 84 32 04 00 00    	je     4378 <arena_free+0x518>
    3f46:	4c 89 c6             	mov    %r8,%rsi
    3f49:	c6 03 45             	movb   $0x45,(%rbx)
    3f4c:	48 29 c6             	sub    %rax,%rsi
    3f4f:	4d 85 f6             	test   %r14,%r14
    3f52:	48 89 73 28          	mov    %rsi,0x28(%rbx)
    3f56:	0f 84 6b 02 00 00    	je     41c7 <arena_free+0x367>
    3f5c:	49 29 c6             	sub    %rax,%r14
    3f5f:	31 c0                	xor    %eax,%eax
    3f61:	48 89 54 24 18       	mov    %rdx,0x18(%rsp)
    3f66:	4d 89 75 00          	mov    %r14,0x0(%r13)
    3f6a:	4c 89 44 24 10       	mov    %r8,0x10(%rsp)
    3f6f:	48 89 4c 24 08       	mov    %rcx,0x8(%rsp)
    3f74:	e8 a7 e0 ff ff       	callq  2020 <sfence@plt>
    3f79:	49 8b 7d 00          	mov    0x0(%r13),%rdi
    3f7d:	e8 4e e1 ff ff       	callq  20d0 <clwb@plt>
    3f82:	48 8b 4c 24 08       	mov    0x8(%rsp),%rcx
    3f87:	4c 8b 44 24 10       	mov    0x10(%rsp),%r8
    3f8c:	48 8b 54 24 18       	mov    0x18(%rsp),%rdx
    3f91:	48 85 c9             	test   %rcx,%rcx
    3f94:	74 24                	je     3fba <arena_free+0x15a>
    3f96:	4d 85 c0             	test   %r8,%r8
    3f99:	74 03                	je     3f9e <arena_free+0x13e>
    3f9b:	4c 2b 02             	sub    (%rdx),%r8
    3f9e:	4c 89 01             	mov    %r8,(%rcx)
    3fa1:	31 c0                	xor    %eax,%eax
    3fa3:	48 89 4c 24 08       	mov    %rcx,0x8(%rsp)
    3fa8:	e8 73 e0 ff ff       	callq  2020 <sfence@plt>
    3fad:	48 8b 4c 24 08       	mov    0x8(%rsp),%rcx
    3fb2:	48 8b 39             	mov    (%rcx),%rdi
    3fb5:	e8 16 e1 ff ff       	callq  20d0 <clwb@plt>
    3fba:	8d 75 07             	lea    0x7(%rbp),%esi
    3fbd:	85 ed                	test   %ebp,%ebp
    3fbf:	89 e8                	mov    %ebp,%eax
    3fc1:	66 0f ef c0          	pxor   %xmm0,%xmm0
    3fc5:	41 bd fe ff ff ff    	mov    $0xfffffffe,%r13d
    3fcb:	0f 49 f5             	cmovns %ebp,%esi
    3fce:	c1 f8 1f             	sar    $0x1f,%eax
    3fd1:	c1 e8 1d             	shr    $0x1d,%eax
    3fd4:	c1 fe 03             	sar    $0x3,%esi
    3fd7:	8d 0c 28             	lea    (%rax,%rbp,1),%ecx
    3fda:	48 63 ee             	movslq %esi,%rbp
    3fdd:	83 e1 07             	and    $0x7,%ecx
    3fe0:	29 c1                	sub    %eax,%ecx
    3fe2:	b8 ff ff ff ff       	mov    $0xffffffff,%eax
    3fe7:	41 d3 c5             	rol    %cl,%r13d
    3fea:	44 20 6c 2b 30       	and    %r13b,0x30(%rbx,%rbp,1)
    3fef:	66 89 43 38          	mov    %ax,0x38(%rbx)
    3ff3:	c6 03 42             	movb   $0x42,(%rbx)
    3ff6:	31 c0                	xor    %eax,%eax
    3ff8:	0f 29 43 10          	movaps %xmm0,0x10(%rbx)
    3ffc:	0f 29 43 20          	movaps %xmm0,0x20(%rbx)
    4000:	e8 1b e0 ff ff       	callq  2020 <sfence@plt>
    4005:	48 89 df             	mov    %rbx,%rdi
    4008:	e8 c3 e0 ff ff       	callq  20d0 <clwb@plt>
    400d:	45 20 6c 2c 2e       	and    %r13b,0x2e(%r12,%rbp,1)
    4012:	41 0f b7 44 24 2a    	movzwl 0x2a(%r12),%eax
    4018:	83 c0 01             	add    $0x1,%eax
    401b:	66 41 89 44 24 2a    	mov    %ax,0x2a(%r12)
    4021:	41 83 47 08 01       	addl   $0x1,0x8(%r15)
    4026:	4d 39 27             	cmp    %r12,(%r15)
    4029:	0f 84 68 fe ff ff    	je     3e97 <arena_free+0x37>
    402f:	66 83 f8 01          	cmp    $0x1,%ax
    4033:	0f 85 5e fe ff ff    	jne    3e97 <arena_free+0x37>
    4039:	49 8b 47 10          	mov    0x10(%r15),%rax
    403d:	49 89 44 24 38       	mov    %rax,0x38(%r12)
    4042:	4d 89 67 10          	mov    %r12,0x10(%r15)
    4046:	e9 4c fe ff ff       	jmpq   3e97 <arena_free+0x37>
    404b:	0f 1f 44 00 00       	nopl   0x0(%rax,%rax,1)
    4050:	bf 30 00 00 00       	mov    $0x30,%edi
    4055:	4c 89 44 24 10       	mov    %r8,0x10(%rsp)
    405a:	48 89 4c 24 08       	mov    %rcx,0x8(%rsp)
    405f:	e8 fc e0 ff ff       	callq  2160 <malloc@plt>
    4064:	49 89 c4             	mov    %rax,%r12
    4067:	48 89 58 18          	mov    %rbx,0x18(%rax)
    406b:	8b 43 04             	mov    0x4(%rbx),%eax
    406e:	8b 53 28             	mov    0x28(%rbx),%edx
    4071:	4d 85 ed             	test   %r13,%r13
    4074:	41 89 44 24 20       	mov    %eax,0x20(%r12)
    4079:	48 8b 05 50 4f 20 00 	mov    0x204f50(%rip),%rax        # 208fd0 <arenas@@Base-0x990>
    4080:	48 8b 00             	mov    (%rax),%rax
    4083:	48 8b 2c d0          	mov    (%rax,%rdx,8),%rbp
    4087:	49 89 6c 24 28       	mov    %rbp,0x28(%r12)
    408c:	0f 84 c1 00 00 00    	je     4153 <arena_free+0x2f3>
    4092:	48 8b 15 e7 4e 20 00 	mov    0x204ee7(%rip),%rdx        # 208f80 <nvm_start@@Base-0xa68>
    4099:	4c 89 ee             	mov    %r13,%rsi
    409c:	48 8b 4c 24 08       	mov    0x8(%rsp),%rcx
    40a1:	4c 8b 44 24 10       	mov    0x10(%rsp),%r8
    40a6:	48 8b 02             	mov    (%rdx),%rax
    40a9:	48 29 c6             	sub    %rax,%rsi
    40ac:	4d 85 f6             	test   %r14,%r14
    40af:	48 89 73 08          	mov    %rsi,0x8(%rbx)
    40b3:	0f 84 a7 01 00 00    	je     4260 <arena_free+0x400>
    40b9:	4c 89 f6             	mov    %r14,%rsi
    40bc:	48 29 c6             	sub    %rax,%rsi
    40bf:	48 85 c9             	test   %rcx,%rcx
    40c2:	48 89 73 10          	mov    %rsi,0x10(%rbx)
    40c6:	0f 84 6c 02 00 00    	je     4338 <arena_free+0x4d8>
    40cc:	48 89 ce             	mov    %rcx,%rsi
    40cf:	48 29 c6             	sub    %rax,%rsi
    40d2:	4d 85 c0             	test   %r8,%r8
    40d5:	48 89 73 18          	mov    %rsi,0x18(%rbx)
    40d9:	0f 84 f1 01 00 00    	je     42d0 <arena_free+0x470>
    40df:	4c 89 c6             	mov    %r8,%rsi
    40e2:	c6 03 35             	movb   $0x35,(%rbx)
    40e5:	48 29 c6             	sub    %rax,%rsi
    40e8:	4d 85 f6             	test   %r14,%r14
    40eb:	48 89 73 20          	mov    %rsi,0x20(%rbx)
    40ef:	0f 84 9b 01 00 00    	je     4290 <arena_free+0x430>
    40f5:	49 29 c6             	sub    %rax,%r14
    40f8:	31 c0                	xor    %eax,%eax
    40fa:	48 89 54 24 18       	mov    %rdx,0x18(%rsp)
    40ff:	4d 89 75 00          	mov    %r14,0x0(%r13)
    4103:	4c 89 44 24 10       	mov    %r8,0x10(%rsp)
    4108:	48 89 4c 24 08       	mov    %rcx,0x8(%rsp)
    410d:	e8 0e df ff ff       	callq  2020 <sfence@plt>
    4112:	49 8b 7d 00          	mov    0x0(%r13),%rdi
    4116:	e8 b5 df ff ff       	callq  20d0 <clwb@plt>
    411b:	48 8b 4c 24 08       	mov    0x8(%rsp),%rcx
    4120:	4c 8b 44 24 10       	mov    0x10(%rsp),%r8
    4125:	48 8b 54 24 18       	mov    0x18(%rsp),%rdx
    412a:	48 85 c9             	test   %rcx,%rcx
    412d:	74 24                	je     4153 <arena_free+0x2f3>
    412f:	4d 85 c0             	test   %r8,%r8
    4132:	74 03                	je     4137 <arena_free+0x2d7>
    4134:	4c 2b 02             	sub    (%rdx),%r8
    4137:	4c 89 01             	mov    %r8,(%rcx)
    413a:	31 c0                	xor    %eax,%eax
    413c:	48 89 4c 24 08       	mov    %rcx,0x8(%rsp)
    4141:	e8 da de ff ff       	callq  2020 <sfence@plt>
    4146:	48 8b 4c 24 08       	mov    0x8(%rsp),%rcx
    414b:	48 8b 39             	mov    (%rcx),%rdi
    414e:	e8 7d df ff ff       	callq  20d0 <clwb@plt>
    4153:	66 0f ef c0          	pxor   %xmm0,%xmm0
    4157:	c6 03 12             	movb   $0x12,(%rbx)
    415a:	31 c0                	xor    %eax,%eax
    415c:	0f 11 43 08          	movups %xmm0,0x8(%rbx)
    4160:	0f 11 43 18          	movups %xmm0,0x18(%rbx)
    4164:	e8 b7 de ff ff       	callq  2020 <sfence@plt>
    4169:	48 89 df             	mov    %rbx,%rdi
    416c:	e8 5f df ff ff       	callq  20d0 <clwb@plt>
    4171:	48 8b 35 30 4e 20 00 	mov    0x204e30(%rip),%rsi        # 208fa8 <block_node_compare@@Base+0x2059f8>
    4178:	48 83 c4 28          	add    $0x28,%rsp
    417c:	48 8d 95 48 08 00 00 	lea    0x848(%rbp),%rdx
    4183:	5b                   	pop    %rbx
    4184:	4c 89 e7             	mov    %r12,%rdi
    4187:	5d                   	pop    %rbp
    4188:	41 5c                	pop    %r12
    418a:	41 5d                	pop    %r13
    418c:	41 5e                	pop    %r14
    418e:	41 5f                	pop    %r15
    4190:	e9 2b e1 ff ff       	jmpq   22c0 <tree_add@plt>
    4195:	0f 1f 00             	nopl   (%rax)
    4198:	48 85 c9             	test   %rcx,%rcx
    419b:	48 c7 43 18 00 00 00 	movq   $0x0,0x18(%rbx)
    41a2:	00 
    41a3:	0f 84 37 01 00 00    	je     42e0 <arena_free+0x480>
    41a9:	48 89 ce             	mov    %rcx,%rsi
    41ac:	48 29 c6             	sub    %rax,%rsi
    41af:	4d 85 c0             	test   %r8,%r8
    41b2:	48 89 73 20          	mov    %rsi,0x20(%rbx)
    41b6:	0f 85 8a fd ff ff    	jne    3f46 <arena_free+0xe6>
    41bc:	48 c7 43 28 00 00 00 	movq   $0x0,0x28(%rbx)
    41c3:	00 
    41c4:	c6 03 45             	movb   $0x45,(%rbx)
    41c7:	31 c0                	xor    %eax,%eax
    41c9:	49 c7 45 00 00 00 00 	movq   $0x0,0x0(%r13)
    41d0:	00 
    41d1:	48 89 54 24 18       	mov    %rdx,0x18(%rsp)
    41d6:	4c 89 44 24 10       	mov    %r8,0x10(%rsp)
    41db:	48 89 4c 24 08       	mov    %rcx,0x8(%rsp)
    41e0:	e8 3b de ff ff       	callq  2020 <sfence@plt>
    41e5:	49 8b 7d 00          	mov    0x0(%r13),%rdi
    41e9:	e8 e2 de ff ff       	callq  20d0 <clwb@plt>
    41ee:	48 8b 4c 24 08       	mov    0x8(%rsp),%rcx
    41f3:	4c 8b 44 24 10       	mov    0x10(%rsp),%r8
    41f8:	48 8b 54 24 18       	mov    0x18(%rsp),%rdx
    41fd:	e9 94 fd ff ff       	jmpq   3f96 <arena_free+0x136>
    4202:	66 0f 1f 44 00 00    	nopw   0x0(%rax,%rax,1)
    4208:	48 8d 3d 09 35 00 00 	lea    0x3509(%rip),%rdi        # 7718 <__PRETTY_FUNCTION__.3929+0xd8>
    420f:	4c 89 44 24 10       	mov    %r8,0x10(%rsp)
    4214:	48 89 4c 24 08       	mov    %rcx,0x8(%rsp)
    4219:	e8 42 dd ff ff       	callq  1f60 <puts@plt>
    421e:	48 89 df             	mov    %rbx,%rdi
    4221:	e8 6a dd ff ff       	callq  1f90 <arena_create_run_header@plt>
    4226:	4c 39 63 08          	cmp    %r12,0x8(%rbx)
    422a:	48 8b 4c 24 08       	mov    0x8(%rsp),%rcx
    422f:	4c 8b 44 24 10       	mov    0x10(%rsp),%r8
    4234:	0f 84 c6 00 00 00    	je     4300 <arena_free+0x4a0>
    423a:	48 89 c7             	mov    %rax,%rdi
    423d:	4c 89 44 24 10       	mov    %r8,0x10(%rsp)
    4242:	48 89 4c 24 08       	mov    %rcx,0x8(%rsp)
    4247:	e8 94 dc ff ff       	callq  1ee0 <free@plt>
    424c:	4c 8b 63 08          	mov    0x8(%rbx),%r12
    4250:	4c 8b 44 24 10       	mov    0x10(%rsp),%r8
    4255:	48 8b 4c 24 08       	mov    0x8(%rsp),%rcx
    425a:	e9 7a fc ff ff       	jmpq   3ed9 <arena_free+0x79>
    425f:	90                   	nop
    4260:	48 85 c9             	test   %rcx,%rcx
    4263:	48 c7 43 10 00 00 00 	movq   $0x0,0x10(%rbx)
    426a:	00 
    426b:	0f 84 e7 00 00 00    	je     4358 <arena_free+0x4f8>
    4271:	48 89 ce             	mov    %rcx,%rsi
    4274:	48 29 c6             	sub    %rax,%rsi
    4277:	4d 85 c0             	test   %r8,%r8
    427a:	48 89 73 18          	mov    %rsi,0x18(%rbx)
    427e:	0f 85 5b fe ff ff    	jne    40df <arena_free+0x27f>
    4284:	48 c7 43 20 00 00 00 	movq   $0x0,0x20(%rbx)
    428b:	00 
    428c:	c6 03 35             	movb   $0x35,(%rbx)
    428f:	90                   	nop
    4290:	31 c0                	xor    %eax,%eax
    4292:	49 c7 45 00 00 00 00 	movq   $0x0,0x0(%r13)
    4299:	00 
    429a:	48 89 54 24 18       	mov    %rdx,0x18(%rsp)
    429f:	4c 89 44 24 10       	mov    %r8,0x10(%rsp)
    42a4:	48 89 4c 24 08       	mov    %rcx,0x8(%rsp)
    42a9:	e8 72 dd ff ff       	callq  2020 <sfence@plt>
    42ae:	49 8b 7d 00          	mov    0x0(%r13),%rdi
    42b2:	e8 19 de ff ff       	callq  20d0 <clwb@plt>
    42b7:	48 8b 4c 24 08       	mov    0x8(%rsp),%rcx
    42bc:	4c 8b 44 24 10       	mov    0x10(%rsp),%r8
    42c1:	48 8b 54 24 18       	mov    0x18(%rsp),%rdx
    42c6:	e9 64 fe ff ff       	jmpq   412f <arena_free+0x2cf>
    42cb:	0f 1f 44 00 00       	nopl   0x0(%rax,%rax,1)
    42d0:	48 c7 43 20 00 00 00 	movq   $0x0,0x20(%rbx)
    42d7:	00 
    42d8:	c6 03 35             	movb   $0x35,(%rbx)
    42db:	e9 15 fe ff ff       	jmpq   40f5 <arena_free+0x295>
    42e0:	c6 03 45             	movb   $0x45,(%rbx)
    42e3:	31 c0                	xor    %eax,%eax
    42e5:	49 c7 45 00 00 00 00 	movq   $0x0,0x0(%r13)
    42ec:	00 
    42ed:	e8 2e dd ff ff       	callq  2020 <sfence@plt>
    42f2:	49 8b 7d 00          	mov    0x0(%r13),%rdi
    42f6:	e8 d5 dd ff ff       	callq  20d0 <clwb@plt>
    42fb:	e9 ba fc ff ff       	jmpq   3fba <arena_free+0x15a>
    4300:	49 8b 17             	mov    (%r15),%rdx
    4303:	48 89 43 08          	mov    %rax,0x8(%rbx)
    4307:	49 89 c4             	mov    %rax,%r12
    430a:	89 53 3c             	mov    %edx,0x3c(%rbx)
    430d:	e9 c7 fb ff ff       	jmpq   3ed9 <arena_free+0x79>
    4312:	66 0f 1f 44 00 00    	nopw   0x0(%rax,%rax,1)
    4318:	c6 03 45             	movb   $0x45,(%rbx)
    431b:	31 c0                	xor    %eax,%eax
    431d:	49 89 75 00          	mov    %rsi,0x0(%r13)
    4321:	e8 fa dc ff ff       	callq  2020 <sfence@plt>
    4326:	49 8b 7d 00          	mov    0x0(%r13),%rdi
    432a:	e8 a1 dd ff ff       	callq  20d0 <clwb@plt>
    432f:	e9 86 fc ff ff       	jmpq   3fba <arena_free+0x15a>
    4334:	0f 1f 40 00          	nopl   0x0(%rax)
    4338:	c6 03 35             	movb   $0x35,(%rbx)
    433b:	31 c0                	xor    %eax,%eax
    433d:	49 89 75 00          	mov    %rsi,0x0(%r13)
    4341:	e8 da dc ff ff       	callq  2020 <sfence@plt>
    4346:	49 8b 7d 00          	mov    0x0(%r13),%rdi
    434a:	e8 81 dd ff ff       	callq  20d0 <clwb@plt>
    434f:	e9 ff fd ff ff       	jmpq   4153 <arena_free+0x2f3>
    4354:	0f 1f 40 00          	nopl   0x0(%rax)
    4358:	c6 03 35             	movb   $0x35,(%rbx)
    435b:	31 c0                	xor    %eax,%eax
    435d:	49 c7 45 00 00 00 00 	movq   $0x0,0x0(%r13)
    4364:	00 
    4365:	e8 b6 dc ff ff       	callq  2020 <sfence@plt>
    436a:	49 8b 7d 00          	mov    0x0(%r13),%rdi
    436e:	e8 5d dd ff ff       	callq  20d0 <clwb@plt>
    4373:	e9 db fd ff ff       	jmpq   4153 <arena_free+0x2f3>
    4378:	48 c7 43 28 00 00 00 	movq   $0x0,0x28(%rbx)
    437f:	00 
    4380:	c6 03 45             	movb   $0x45,(%rbx)
    4383:	e9 d4 fb ff ff       	jmpq   3f5c <arena_free+0xfc>
    4388:	0f 1f 84 00 00 00 00 	nopl   0x0(%rax,%rax,1)
    438f:	00 

0000000000004390 <arena_create_block_header>:
    4390:	53                   	push   %rbx
    4391:	48 89 fb             	mov    %rdi,%rbx
    4394:	bf 30 00 00 00       	mov    $0x30,%edi
    4399:	e8 c2 dd ff ff       	callq  2160 <malloc@plt>
    439e:	8b 53 04             	mov    0x4(%rbx),%edx
    43a1:	8b 4b 28             	mov    0x28(%rbx),%ecx
    43a4:	48 89 58 18          	mov    %rbx,0x18(%rax)
    43a8:	89 50 20             	mov    %edx,0x20(%rax)
    43ab:	48 8b 15 1e 4c 20 00 	mov    0x204c1e(%rip),%rdx        # 208fd0 <arenas@@Base-0x990>
    43b2:	48 8b 12             	mov    (%rdx),%rdx
    43b5:	48 8b 14 ca          	mov    (%rdx,%rcx,8),%rdx
    43b9:	48 89 50 28          	mov    %rdx,0x28(%rax)
    43bd:	5b                   	pop    %rbx
    43be:	c3                   	retq   
    43bf:	90                   	nop

00000000000043c0 <arena_teardown>:
    43c0:	41 56                	push   %r14
    43c2:	41 55                	push   %r13
    43c4:	41 54                	push   %r12
    43c6:	49 89 fc             	mov    %rdi,%r12
    43c9:	55                   	push   %rbp
    43ca:	53                   	push   %rbx
    43cb:	48 8b bf 48 08 00 00 	mov    0x848(%rdi),%rdi
    43d2:	4d 8d b4 24 48 08 00 	lea    0x848(%r12),%r14
    43d9:	00 
    43da:	e8 81 dc ff ff       	callq  2060 <tree_min@plt>
    43df:	48 89 c7             	mov    %rax,%rdi
    43e2:	49 89 c5             	mov    %rax,%r13
    43e5:	48 89 c5             	mov    %rax,%rbp
    43e8:	e8 53 db ff ff       	callq  1f40 <tree_successor@plt>
    43ed:	48 89 c3             	mov    %rax,%rbx
    43f0:	eb 31                	jmp    4423 <arena_teardown+0x63>
    43f2:	66 0f 1f 44 00 00    	nopw   0x0(%rax,%rax,1)
    43f8:	48 89 ef             	mov    %rbp,%rdi
    43fb:	4c 89 f6             	mov    %r14,%rsi
    43fe:	48 89 dd             	mov    %rbx,%rbp
    4401:	e8 ca db ff ff       	callq  1fd0 <tree_del@plt>
    4406:	4c 89 ef             	mov    %r13,%rdi
    4409:	e8 d2 da ff ff       	callq  1ee0 <free@plt>
    440e:	31 c0                	xor    %eax,%eax
    4410:	48 85 db             	test   %rbx,%rbx
    4413:	74 08                	je     441d <arena_teardown+0x5d>
    4415:	48 89 df             	mov    %rbx,%rdi
    4418:	e8 23 db ff ff       	callq  1f40 <tree_successor@plt>
    441d:	49 89 dd             	mov    %rbx,%r13
    4420:	48 89 c3             	mov    %rax,%rbx
    4423:	48 85 ed             	test   %rbp,%rbp
    4426:	75 d0                	jne    43f8 <arena_teardown+0x38>
    4428:	49 8d 5c 24 18       	lea    0x18(%r12),%rbx
    442d:	49 8d ac 24 d8 07 00 	lea    0x7d8(%r12),%rbp
    4434:	00 
    4435:	0f 1f 00             	nopl   (%rax)
    4438:	48 8b 7b f0          	mov    -0x10(%rbx),%rdi
    443c:	48 85 ff             	test   %rdi,%rdi
    443f:	74 1b                	je     445c <arena_teardown+0x9c>
    4441:	e8 9a da ff ff       	callq  1ee0 <free@plt>
    4446:	48 c7 43 f0 00 00 00 	movq   $0x0,-0x10(%rbx)
    444d:	00 
    444e:	eb 0c                	jmp    445c <arena_teardown+0x9c>
    4450:	48 8b 47 38          	mov    0x38(%rdi),%rax
    4454:	48 89 03             	mov    %rax,(%rbx)
    4457:	e8 84 da ff ff       	callq  1ee0 <free@plt>
    445c:	48 8b 3b             	mov    (%rbx),%rdi
    445f:	48 85 ff             	test   %rdi,%rdi
    4462:	75 ec                	jne    4450 <arena_teardown+0x90>
    4464:	48 83 c3 40          	add    $0x40,%rbx
    4468:	48 39 eb             	cmp    %rbp,%rbx
    446b:	75 cb                	jne    4438 <arena_teardown+0x78>
    446d:	5b                   	pop    %rbx
    446e:	4c 89 e7             	mov    %r12,%rdi
    4471:	5d                   	pop    %rbp
    4472:	41 5c                	pop    %r12
    4474:	41 5d                	pop    %r13
    4476:	41 5e                	pop    %r14
    4478:	e9 63 da ff ff       	jmpq   1ee0 <free@plt>
    447d:	0f 1f 00             	nopl   (%rax)

0000000000004480 <chunk_node_compare>:
    4480:	8b 4f 20             	mov    0x20(%rdi),%ecx
    4483:	8b 56 20             	mov    0x20(%rsi),%edx
    4486:	31 c0                	xor    %eax,%eax
    4488:	39 d1                	cmp    %edx,%ecx
    448a:	0f 97 c0             	seta   %al
    448d:	83 d8 00             	sbb    $0x0,%eax
    4490:	c3                   	retq   
    4491:	0f 1f 44 00 00       	nopl   0x0(%rax,%rax,1)
    4496:	66 2e 0f 1f 84 00 00 	nopw   %cs:0x0(%rax,%rax,1)
    449d:	00 00 00 

00000000000044a0 <nvm_recovery_thread>:
    44a0:	48 85 ff             	test   %rdi,%rdi
    44a3:	0f 84 7f 01 00 00    	je     4628 <nvm_recovery_thread+0x188>
    44a9:	41 57                	push   %r15
    44ab:	41 56                	push   %r14
    44ad:	41 55                	push   %r13
    44af:	41 54                	push   %r12
    44b1:	45 31 e4             	xor    %r12d,%r12d
    44b4:	55                   	push   %rbp
    44b5:	53                   	push   %rbx
    44b6:	48 89 fd             	mov    %rdi,%rbp
    44b9:	48 83 ec 18          	sub    $0x18,%rsp
    44bd:	eb 0d                	jmp    44cc <nvm_recovery_thread+0x2c>
    44bf:	90                   	nop
    44c0:	41 8b 45 04          	mov    0x4(%r13),%eax
    44c4:	49 01 c4             	add    %rax,%r12
    44c7:	4c 39 e5             	cmp    %r12,%rbp
    44ca:	76 7c                	jbe    4548 <nvm_recovery_thread+0xa8>
    44cc:	48 8b 05 ad 4a 20 00 	mov    0x204aad(%rip),%rax        # 208f80 <nvm_start@@Base-0xa68>
    44d3:	4d 89 e5             	mov    %r12,%r13
    44d6:	49 c1 e5 1f          	shl    $0x1f,%r13
    44da:	4c 03 28             	add    (%rax),%r13
    44dd:	41 0f b6 45 00       	movzbl 0x0(%r13),%eax
    44e2:	83 e0 f0             	and    $0xfffffff0,%eax
    44e5:	3c 20                	cmp    $0x20,%al
    44e7:	75 d7                	jne    44c0 <nvm_recovery_thread+0x20>
    44e9:	41 be 01 00 00 00    	mov    $0x1,%r14d
    44ef:	eb 16                	jmp    4507 <nvm_recovery_thread+0x67>
    44f1:	0f 1f 80 00 00 00 00 	nopl   0x0(%rax)
    44f8:	8b 43 04             	mov    0x4(%rbx),%eax
    44fb:	49 01 c6             	add    %rax,%r14
    44fe:	49 81 fe ff ff 07 00 	cmp    $0x7ffff,%r14
    4505:	77 38                	ja     453f <nvm_recovery_thread+0x9f>
    4507:	4c 89 f3             	mov    %r14,%rbx
    450a:	48 c1 e3 0c          	shl    $0xc,%rbx
    450e:	4c 01 eb             	add    %r13,%rbx
    4511:	0f b6 03             	movzbl (%rbx),%eax
    4514:	83 e0 f0             	and    $0xfffffff0,%eax
    4517:	3c 10                	cmp    $0x10,%al
    4519:	74 45                	je     4560 <nvm_recovery_thread+0xc0>
    451b:	3c 40                	cmp    $0x40,%al
    451d:	75 d9                	jne    44f8 <nvm_recovery_thread+0x58>
    451f:	48 8b 0d b2 4a 20 00 	mov    0x204ab2(%rip),%rcx        # 208fd8 <current_version@@Base-0x9e8>
    4526:	8b 43 3c             	mov    0x3c(%rbx),%eax
    4529:	48 3b 01             	cmp    (%rcx),%rax
    452c:	0f 82 7e 00 00 00    	jb     45b0 <nvm_recovery_thread+0x110>
    4532:	49 83 c6 01          	add    $0x1,%r14
    4536:	49 81 fe ff ff 07 00 	cmp    $0x7ffff,%r14
    453d:	76 c8                	jbe    4507 <nvm_recovery_thread+0x67>
    453f:	49 83 c4 01          	add    $0x1,%r12
    4543:	4c 39 e5             	cmp    %r12,%rbp
    4546:	77 84                	ja     44cc <nvm_recovery_thread+0x2c>
    4548:	48 83 c4 18          	add    $0x18,%rsp
    454c:	31 c0                	xor    %eax,%eax
    454e:	5b                   	pop    %rbx
    454f:	5d                   	pop    %rbp
    4550:	41 5c                	pop    %r12
    4552:	41 5d                	pop    %r13
    4554:	41 5e                	pop    %r14
    4556:	41 5f                	pop    %r15
    4558:	c3                   	retq   
    4559:	0f 1f 80 00 00 00 00 	nopl   0x0(%rax)
    4560:	48 89 df             	mov    %rbx,%rdi
    4563:	e8 18 da ff ff       	callq  1f80 <arena_create_block_header@plt>
    4568:	49 89 c7             	mov    %rax,%r15
    456b:	48 8b 40 28          	mov    0x28(%rax),%rax
    456f:	48 8d b8 50 08 00 00 	lea    0x850(%rax),%rdi
    4576:	e8 25 dd ff ff       	callq  22a0 <pthread_mutex_lock@plt>
    457b:	49 8b 47 28          	mov    0x28(%r15),%rax
    457f:	48 8b 35 22 4a 20 00 	mov    0x204a22(%rip),%rsi        # 208fa8 <block_node_compare@@Base+0x2059f8>
    4586:	4c 89 ff             	mov    %r15,%rdi
    4589:	48 8d 90 48 08 00 00 	lea    0x848(%rax),%rdx
    4590:	e8 2b dd ff ff       	callq  22c0 <tree_add@plt>
    4595:	49 8b 7f 28          	mov    0x28(%r15),%rdi
    4599:	48 81 c7 50 08 00 00 	add    $0x850,%rdi
    45a0:	e8 ab db ff ff       	callq  2150 <pthread_mutex_unlock@plt>
    45a5:	8b 43 04             	mov    0x4(%rbx),%eax
    45a8:	49 01 c6             	add    %rax,%r14
    45ab:	e9 4e ff ff ff       	jmpq   44fe <nvm_recovery_thread+0x5e>
    45b0:	48 8b 73 08          	mov    0x8(%rbx),%rsi
    45b4:	48 89 df             	mov    %rbx,%rdi
    45b7:	48 89 74 24 08       	mov    %rsi,0x8(%rsp)
    45bc:	e8 cf d9 ff ff       	callq  1f90 <arena_create_run_header@plt>
    45c1:	49 89 c7             	mov    %rax,%r15
    45c4:	48 8b 40 20          	mov    0x20(%rax),%rax
    45c8:	48 8d 78 18          	lea    0x18(%rax),%rdi
    45cc:	e8 cf dc ff ff       	callq  22a0 <pthread_mutex_lock@plt>
    45d1:	48 8b 74 24 08       	mov    0x8(%rsp),%rsi
    45d6:	48 39 73 08          	cmp    %rsi,0x8(%rbx)
    45da:	74 24                	je     4600 <nvm_recovery_thread+0x160>
    45dc:	4c 89 ff             	mov    %r15,%rdi
    45df:	e8 fc d8 ff ff       	callq  1ee0 <free@plt>
    45e4:	49 8b 7f 20          	mov    0x20(%r15),%rdi
    45e8:	48 83 c7 18          	add    $0x18,%rdi
    45ec:	e8 5f db ff ff       	callq  2150 <pthread_mutex_unlock@plt>
    45f1:	e9 3c ff ff ff       	jmpq   4532 <nvm_recovery_thread+0x92>
    45f6:	66 2e 0f 1f 84 00 00 	nopw   %cs:0x0(%rax,%rax,1)
    45fd:	00 00 00 
    4600:	48 8b 05 d1 49 20 00 	mov    0x2049d1(%rip),%rax        # 208fd8 <current_version@@Base-0x9e8>
    4607:	4c 89 7b 08          	mov    %r15,0x8(%rbx)
    460b:	48 8b 00             	mov    (%rax),%rax
    460e:	89 43 3c             	mov    %eax,0x3c(%rbx)
    4611:	31 c0                	xor    %eax,%eax
    4613:	e8 08 da ff ff       	callq  2020 <sfence@plt>
    4618:	48 89 df             	mov    %rbx,%rdi
    461b:	e8 b0 da ff ff       	callq  20d0 <clwb@plt>
    4620:	eb c2                	jmp    45e4 <nvm_recovery_thread+0x144>
    4622:	66 0f 1f 44 00 00    	nopw   0x0(%rax,%rax,1)
    4628:	31 c0                	xor    %eax,%eax
    462a:	c3                   	retq   
    462b:	0f 1f 44 00 00       	nopl   0x0(%rax,%rax,1)

0000000000004630 <nvm_get_id>:
    4630:	48 83 ec 08          	sub    $0x8,%rsp
    4634:	e8 77 dc ff ff       	callq  22b0 <ot_get@plt>
    4639:	48 85 c0             	test   %rax,%rax
    463c:	74 12                	je     4650 <nvm_get_id+0x20>
    463e:	48 8b 40 40          	mov    0x40(%rax),%rax
    4642:	48 83 c4 08          	add    $0x8,%rsp
    4646:	c3                   	retq   
    4647:	66 0f 1f 84 00 00 00 	nopw   0x0(%rax,%rax,1)
    464e:	00 00 
    4650:	31 c0                	xor    %eax,%eax
    4652:	eb ee                	jmp    4642 <nvm_get_id+0x12>
    4654:	66 90                	xchg   %ax,%ax
    4656:	66 2e 0f 1f 84 00 00 	nopw   %cs:0x0(%rax,%rax,1)
    465d:	00 00 00 

0000000000004660 <nvm_free>:
    4660:	41 57                	push   %r15
    4662:	41 56                	push   %r14
    4664:	48 89 f8             	mov    %rdi,%rax
    4667:	41 55                	push   %r13
    4669:	41 54                	push   %r12
    466b:	49 89 cf             	mov    %rcx,%r15
    466e:	55                   	push   %rbp
    466f:	53                   	push   %rbx
    4670:	48 89 fb             	mov    %rdi,%rbx
    4673:	48 83 ec 28          	sub    $0x28,%rsp
    4677:	4c 8b 25 02 49 20 00 	mov    0x204902(%rip),%r12        # 208f80 <nvm_start@@Base-0xa68>
    467e:	49 8b 2c 24          	mov    (%r12),%rbp
    4682:	48 29 e8             	sub    %rbp,%rax
    4685:	25 ff ff ff 7f       	and    $0x7fffffff,%eax
    468a:	48 83 f8 40          	cmp    $0x40,%rax
    468e:	74 18                	je     46a8 <nvm_free+0x48>
    4690:	48 83 c4 28          	add    $0x28,%rsp
    4694:	5b                   	pop    %rbx
    4695:	5d                   	pop    %rbp
    4696:	41 5c                	pop    %r12
    4698:	41 5d                	pop    %r13
    469a:	41 5e                	pop    %r14
    469c:	41 5f                	pop    %r15
    469e:	e9 cd d8 ff ff       	jmpq   1f70 <arena_free@plt>
    46a3:	0f 1f 44 00 00       	nopl   0x0(%rax,%rax,1)
    46a8:	4c 8d 77 c0          	lea    -0x40(%rdi),%r14
    46ac:	bf 28 00 00 00       	mov    $0x28,%edi
    46b1:	48 89 74 24 08       	mov    %rsi,0x8(%rsp)
    46b6:	4c 89 44 24 18       	mov    %r8,0x18(%rsp)
    46bb:	48 89 54 24 10       	mov    %rdx,0x10(%rsp)
    46c0:	e8 9b da ff ff       	callq  2160 <malloc@plt>
    46c5:	48 8b 74 24 08       	mov    0x8(%rsp),%rsi
    46ca:	49 89 c5             	mov    %rax,%r13
    46cd:	4c 89 70 18          	mov    %r14,0x18(%rax)
    46d1:	8b 43 c4             	mov    -0x3c(%rbx),%eax
    46d4:	48 85 f6             	test   %rsi,%rsi
    46d7:	41 89 45 20          	mov    %eax,0x20(%r13)
    46db:	0f 84 a3 00 00 00    	je     4784 <nvm_free+0x124>
    46e1:	48 8b 54 24 10       	mov    0x10(%rsp),%rdx
    46e6:	48 89 f0             	mov    %rsi,%rax
    46e9:	4c 8b 44 24 18       	mov    0x18(%rsp),%r8
    46ee:	48 29 e8             	sub    %rbp,%rax
    46f1:	48 89 43 c8          	mov    %rax,-0x38(%rbx)
    46f5:	48 85 d2             	test   %rdx,%rdx
    46f8:	0f 84 e2 00 00 00    	je     47e0 <nvm_free+0x180>
    46fe:	48 89 d0             	mov    %rdx,%rax
    4701:	48 29 e8             	sub    %rbp,%rax
    4704:	4d 85 ff             	test   %r15,%r15
    4707:	48 89 43 d0          	mov    %rax,-0x30(%rbx)
    470b:	0f 84 2f 01 00 00    	je     4840 <nvm_free+0x1e0>
    4711:	4c 89 f8             	mov    %r15,%rax
    4714:	48 29 e8             	sub    %rbp,%rax
    4717:	4d 85 c0             	test   %r8,%r8
    471a:	48 89 43 d8          	mov    %rax,-0x28(%rbx)
    471e:	0f 84 44 01 00 00    	je     4868 <nvm_free+0x208>
    4724:	4c 89 c0             	mov    %r8,%rax
    4727:	c6 43 c0 55          	movb   $0x55,-0x40(%rbx)
    472b:	48 29 e8             	sub    %rbp,%rax
    472e:	48 85 d2             	test   %rdx,%rdx
    4731:	48 89 43 e0          	mov    %rax,-0x20(%rbx)
    4735:	0f 84 d5 00 00 00    	je     4810 <nvm_free+0x1b0>
    473b:	48 29 ea             	sub    %rbp,%rdx
    473e:	31 c0                	xor    %eax,%eax
    4740:	4c 89 44 24 10       	mov    %r8,0x10(%rsp)
    4745:	48 89 16             	mov    %rdx,(%rsi)
    4748:	48 89 74 24 08       	mov    %rsi,0x8(%rsp)
    474d:	e8 ce d8 ff ff       	callq  2020 <sfence@plt>
    4752:	48 8b 74 24 08       	mov    0x8(%rsp),%rsi
    4757:	48 8b 3e             	mov    (%rsi),%rdi
    475a:	e8 71 d9 ff ff       	callq  20d0 <clwb@plt>
    475f:	4d 85 ff             	test   %r15,%r15
    4762:	4c 8b 44 24 10       	mov    0x10(%rsp),%r8
    4767:	74 1b                	je     4784 <nvm_free+0x124>
    4769:	4d 85 c0             	test   %r8,%r8
    476c:	74 04                	je     4772 <nvm_free+0x112>
    476e:	4d 2b 04 24          	sub    (%r12),%r8
    4772:	4d 89 07             	mov    %r8,(%r15)
    4775:	31 c0                	xor    %eax,%eax
    4777:	e8 a4 d8 ff ff       	callq  2020 <sfence@plt>
    477c:	49 8b 3f             	mov    (%r15),%rdi
    477f:	e8 4c d9 ff ff       	callq  20d0 <clwb@plt>
    4784:	66 0f ef c0          	pxor   %xmm0,%xmm0
    4788:	c6 43 c0 12          	movb   $0x12,-0x40(%rbx)
    478c:	31 c0                	xor    %eax,%eax
    478e:	0f 11 43 c8          	movups %xmm0,-0x38(%rbx)
    4792:	41 0f 11 46 18       	movups %xmm0,0x18(%r14)
    4797:	e8 84 d8 ff ff       	callq  2020 <sfence@plt>
    479c:	4c 89 f7             	mov    %r14,%rdi
    479f:	e8 2c d9 ff ff       	callq  20d0 <clwb@plt>
    47a4:	48 8b 1d 15 48 20 00 	mov    0x204815(%rip),%rbx        # 208fc0 <chunk_mtx@@Base-0x9c0>
    47ab:	48 89 df             	mov    %rbx,%rdi
    47ae:	e8 ed da ff ff       	callq  22a0 <pthread_mutex_lock@plt>
    47b3:	48 8b 15 36 48 20 00 	mov    0x204836(%rip),%rdx        # 208ff0 <free_chunks@@Base-0x9b8>
    47ba:	48 8b 35 cf 47 20 00 	mov    0x2047cf(%rip),%rsi        # 208f90 <chunk_node_compare@@Base+0x204b10>
    47c1:	4c 89 ef             	mov    %r13,%rdi
    47c4:	e8 f7 da ff ff       	callq  22c0 <tree_add@plt>
    47c9:	48 83 c4 28          	add    $0x28,%rsp
    47cd:	48 89 df             	mov    %rbx,%rdi
    47d0:	5b                   	pop    %rbx
    47d1:	5d                   	pop    %rbp
    47d2:	41 5c                	pop    %r12
    47d4:	41 5d                	pop    %r13
    47d6:	41 5e                	pop    %r14
    47d8:	41 5f                	pop    %r15
    47da:	e9 71 d9 ff ff       	jmpq   2150 <pthread_mutex_unlock@plt>
    47df:	90                   	nop
    47e0:	4d 85 ff             	test   %r15,%r15
    47e3:	48 c7 43 d0 00 00 00 	movq   $0x0,-0x30(%rbx)
    47ea:	00 
    47eb:	0f 84 8f 00 00 00    	je     4880 <nvm_free+0x220>
    47f1:	4c 89 f8             	mov    %r15,%rax
    47f4:	48 29 e8             	sub    %rbp,%rax
    47f7:	4d 85 c0             	test   %r8,%r8
    47fa:	48 89 43 d8          	mov    %rax,-0x28(%rbx)
    47fe:	0f 85 20 ff ff ff    	jne    4724 <nvm_free+0xc4>
    4804:	48 c7 43 e0 00 00 00 	movq   $0x0,-0x20(%rbx)
    480b:	00 
    480c:	c6 43 c0 55          	movb   $0x55,-0x40(%rbx)
    4810:	48 c7 06 00 00 00 00 	movq   $0x0,(%rsi)
    4817:	31 c0                	xor    %eax,%eax
    4819:	4c 89 44 24 10       	mov    %r8,0x10(%rsp)
    481e:	48 89 74 24 08       	mov    %rsi,0x8(%rsp)
    4823:	e8 f8 d7 ff ff       	callq  2020 <sfence@plt>
    4828:	48 8b 74 24 08       	mov    0x8(%rsp),%rsi
    482d:	48 8b 3e             	mov    (%rsi),%rdi
    4830:	e8 9b d8 ff ff       	callq  20d0 <clwb@plt>
    4835:	4c 8b 44 24 10       	mov    0x10(%rsp),%r8
    483a:	e9 2a ff ff ff       	jmpq   4769 <nvm_free+0x109>
    483f:	90                   	nop
    4840:	c6 43 c0 55          	movb   $0x55,-0x40(%rbx)
    4844:	48 89 06             	mov    %rax,(%rsi)
    4847:	31 c0                	xor    %eax,%eax
    4849:	48 89 74 24 08       	mov    %rsi,0x8(%rsp)
    484e:	e8 cd d7 ff ff       	callq  2020 <sfence@plt>
    4853:	48 8b 74 24 08       	mov    0x8(%rsp),%rsi
    4858:	48 8b 3e             	mov    (%rsi),%rdi
    485b:	e8 70 d8 ff ff       	callq  20d0 <clwb@plt>
    4860:	e9 1f ff ff ff       	jmpq   4784 <nvm_free+0x124>
    4865:	0f 1f 00             	nopl   (%rax)
    4868:	48 c7 43 e0 00 00 00 	movq   $0x0,-0x20(%rbx)
    486f:	00 
    4870:	c6 43 c0 55          	movb   $0x55,-0x40(%rbx)
    4874:	e9 c2 fe ff ff       	jmpq   473b <nvm_free+0xdb>
    4879:	0f 1f 80 00 00 00 00 	nopl   0x0(%rax)
    4880:	c6 43 c0 55          	movb   $0x55,-0x40(%rbx)
    4884:	48 c7 06 00 00 00 00 	movq   $0x0,(%rsi)
    488b:	eb ba                	jmp    4847 <nvm_free+0x1e7>
    488d:	0f 1f 00             	nopl   (%rax)

0000000000004890 <nvm_free_size>:
    4890:	48 8b 05 31 47 20 00 	mov    0x204731(%rip),%rax        # 208fc8 <size_requested@@Base-0xa18>
    4897:	45 31 c0             	xor    %r8d,%r8d
    489a:	31 c9                	xor    %ecx,%ecx
    489c:	31 d2                	xor    %edx,%edx
    489e:	48 29 30             	sub    %rsi,(%rax)
    48a1:	48 8b 05 d0 46 20 00 	mov    0x2046d0(%rip),%rax        # 208f78 <size_allocated@@Base-0xa60>
    48a8:	48 29 30             	sub    %rsi,(%rax)
    48ab:	48 8b 05 ae 46 20 00 	mov    0x2046ae(%rip),%rax        # 208f60 <size_deallocated@@Base-0xa70>
    48b2:	48 01 30             	add    %rsi,(%rax)
    48b5:	31 f6                	xor    %esi,%esi
    48b7:	e9 c4 d8 ff ff       	jmpq   2180 <nvm_free@plt>
    48bc:	0f 1f 40 00          	nopl   0x0(%rax)

00000000000048c0 <nvm_free_id>:
    48c0:	41 54                	push   %r12
    48c2:	55                   	push   %rbp
    48c3:	48 89 fd             	mov    %rdi,%rbp
    48c6:	53                   	push   %rbx
    48c7:	e8 e4 d9 ff ff       	callq  22b0 <ot_get@plt>
    48cc:	48 85 c0             	test   %rax,%rax
    48cf:	74 3f                	je     4910 <nvm_free_id+0x50>
    48d1:	4c 8b 60 48          	mov    0x48(%rax),%r12
    48d5:	48 89 c3             	mov    %rax,%rbx
    48d8:	31 c0                	xor    %eax,%eax
    48da:	41 c6 04 24 05       	movb   $0x5,(%r12)
    48df:	e8 3c d7 ff ff       	callq  2020 <sfence@plt>
    48e4:	4c 89 e7             	mov    %r12,%rdi
    48e7:	e8 e4 d7 ff ff       	callq  20d0 <clwb@plt>
    48ec:	48 8b 7b 40          	mov    0x40(%rbx),%rdi
    48f0:	45 31 c0             	xor    %r8d,%r8d
    48f3:	31 c9                	xor    %ecx,%ecx
    48f5:	31 d2                	xor    %edx,%edx
    48f7:	31 f6                	xor    %esi,%esi
    48f9:	e8 82 d8 ff ff       	callq  2180 <nvm_free@plt>
    48fe:	5b                   	pop    %rbx
    48ff:	48 89 ef             	mov    %rbp,%rdi
    4902:	5d                   	pop    %rbp
    4903:	41 5c                	pop    %r12
    4905:	e9 16 d8 ff ff       	jmpq   2120 <ot_remove@plt>
    490a:	66 0f 1f 44 00 00    	nopw   0x0(%rax,%rax,1)
    4910:	5b                   	pop    %rbx
    4911:	5d                   	pop    %rbp
    4912:	41 5c                	pop    %r12
    4914:	c3                   	retq   
    4915:	90                   	nop
    4916:	66 2e 0f 1f 84 00 00 	nopw   %cs:0x0(%rax,%rax,1)
    491d:	00 00 00 

0000000000004920 <nvm_persist>:
    4920:	55                   	push   %rbp
    4921:	53                   	push   %rbx
    4922:	31 c0                	xor    %eax,%eax
    4924:	48 89 fb             	mov    %rdi,%rbx
    4927:	48 89 f5             	mov    %rsi,%rbp
    492a:	48 83 ec 08          	sub    $0x8,%rsp
    492e:	e8 ed d6 ff ff       	callq  2020 <sfence@plt>
    4933:	48 83 c4 08          	add    $0x8,%rsp
    4937:	48 89 ee             	mov    %rbp,%rsi
    493a:	48 89 df             	mov    %rbx,%rdi
    493d:	5b                   	pop    %rbx
    493e:	5d                   	pop    %rbp
    493f:	e9 9c d6 ff ff       	jmpq   1fe0 <clwb_range@plt>
    4944:	66 90                	xchg   %ax,%ax
    4946:	66 2e 0f 1f 84 00 00 	nopw   %cs:0x0(%rax,%rax,1)
    494d:	00 00 00 

0000000000004950 <nvm_abs>:
    4950:	48 8b 05 29 46 20 00 	mov    0x204629(%rip),%rax        # 208f80 <nvm_start@@Base-0xa68>
    4957:	48 8b 00             	mov    (%rax),%rax
    495a:	48 85 c0             	test   %rax,%rax
    495d:	74 10                	je     496f <nvm_abs+0x1f>
    495f:	48 01 f8             	add    %rdi,%rax
    4962:	ba 00 00 00 00       	mov    $0x0,%edx
    4967:	48 85 ff             	test   %rdi,%rdi
    496a:	48 0f 44 c2          	cmove  %rdx,%rax
    496e:	c3                   	retq   
    496f:	48 8d 0d a2 2e 00 00 	lea    0x2ea2(%rip),%rcx        # 7818 <__PRETTY_FUNCTION__.4729>
    4976:	48 8d 35 33 2e 00 00 	lea    0x2e33(%rip),%rsi        # 77b0 <__PRETTY_FUNCTION__.3890+0x38>
    497d:	48 8d 3d 3d 2e 00 00 	lea    0x2e3d(%rip),%rdi        # 77c1 <__PRETTY_FUNCTION__.3890+0x49>
    4984:	48 83 ec 08          	sub    $0x8,%rsp
    4988:	ba aa 01 00 00       	mov    $0x1aa,%edx
    498d:	e8 ee d6 ff ff       	callq  2080 <__assert_fail@plt>
    4992:	0f 1f 40 00          	nopl   0x0(%rax)
    4996:	66 2e 0f 1f 84 00 00 	nopw   %cs:0x0(%rax,%rax,1)
    499d:	00 00 00 

00000000000049a0 <nvm_rel>:
    49a0:	48 8b 05 d9 45 20 00 	mov    0x2045d9(%rip),%rax        # 208f80 <nvm_start@@Base-0xa68>
    49a7:	48 8b 00             	mov    (%rax),%rax
    49aa:	48 85 c0             	test   %rax,%rax
    49ad:	74 16                	je     49c5 <nvm_rel+0x25>
    49af:	48 89 f9             	mov    %rdi,%rcx
    49b2:	ba 00 00 00 00       	mov    $0x0,%edx
    49b7:	48 29 c1             	sub    %rax,%rcx
    49ba:	48 85 ff             	test   %rdi,%rdi
    49bd:	48 89 c8             	mov    %rcx,%rax
    49c0:	48 0f 44 c2          	cmove  %rdx,%rax
    49c4:	c3                   	retq   
    49c5:	48 8d 0d 44 2e 00 00 	lea    0x2e44(%rip),%rcx        # 7810 <__PRETTY_FUNCTION__.4733>
    49cc:	48 8d 35 dd 2d 00 00 	lea    0x2ddd(%rip),%rsi        # 77b0 <__PRETTY_FUNCTION__.3890+0x38>
    49d3:	48 8d 3d e7 2d 00 00 	lea    0x2de7(%rip),%rdi        # 77c1 <__PRETTY_FUNCTION__.3890+0x49>
    49da:	48 83 ec 08          	sub    $0x8,%rsp
    49de:	ba af 01 00 00       	mov    $0x1af,%edx
    49e3:	e8 98 d6 ff ff       	callq  2080 <__assert_fail@plt>
    49e8:	0f 1f 84 00 00 00 00 	nopl   0x0(%rax,%rax,1)
    49ef:	00 

00000000000049f0 <nvm_initialize_empty>:
    49f0:	41 57                	push   %r15
    49f2:	41 56                	push   %r14
    49f4:	31 c0                	xor    %eax,%eax
    49f6:	41 55                	push   %r13
    49f8:	41 54                	push   %r12
    49fa:	45 31 f6             	xor    %r14d,%r14d
    49fd:	55                   	push   %rbp
    49fe:	53                   	push   %rbx
    49ff:	49 bf 54 55 52 45 5f 	movabs $0x6f2f5f5f45525554,%r15
    4a06:	5f 2f 6f 
    4a09:	45 31 e4             	xor    %r12d,%r12d
    4a0c:	48 83 ec 08          	sub    $0x8,%rsp
    4a10:	e8 5b d7 ff ff       	callq  2170 <initialize_chunks@plt>
    4a15:	48 8b 1d 84 45 20 00 	mov    0x204584(%rip),%rbx        # 208fa0 <meta_info@@Base-0x2c0>
    4a1c:	48 8b 03             	mov    (%rbx),%rax
    4a1f:	48 c7 00 01 00 00 00 	movq   $0x1,(%rax)
    4a26:	31 c0                	xor    %eax,%eax
    4a28:	e8 f3 d5 ff ff       	callq  2020 <sfence@plt>
    4a2d:	48 8b 3b             	mov    (%rbx),%rdi
    4a30:	e8 9b d6 ff ff       	callq  20d0 <clwb@plt>
    4a35:	48 8b 05 9c 45 20 00 	mov    0x20459c(%rip),%rax        # 208fd8 <current_version@@Base-0x9e8>
    4a3c:	bf 03 00 00 00       	mov    $0x3,%edi
    4a41:	48 c7 00 00 00 00 00 	movq   $0x0,(%rax)
    4a48:	e8 a3 d7 ff ff       	callq  21f0 <activate_more_chunks@plt>
    4a4d:	48 8b 2d 2c 45 20 00 	mov    0x20452c(%rip),%rbp        # 208f80 <nvm_start@@Base-0xa68>
    4a54:	48 8b 5d 00          	mov    0x0(%rbp),%rbx
    4a58:	4c 89 f1             	mov    %r14,%rcx
    4a5b:	b8 2a 2a 00 00       	mov    $0x2a2a,%eax
    4a60:	48 c1 e1 1f          	shl    $0x1f,%rcx
    4a64:	66 0f 6f 05 24 2d 00 	movdqa 0x2d24(%rip),%xmm0        # 7790 <__PRETTY_FUNCTION__.3890+0x18>
    4a6b:	00 
    4a6c:	48 01 cb             	add    %rcx,%rbx
    4a6f:	66 89 43 2d          	mov    %ax,0x2d(%rbx)
    4a73:	b8 00 00 00 80       	mov    $0x80000000,%eax
    4a78:	48 8d 7b 48          	lea    0x48(%rbx),%rdi
    4a7c:	48 01 c1             	add    %rax,%rcx
    4a7f:	49 83 fe 02          	cmp    $0x2,%r14
    4a83:	b8 00 00 00 00       	mov    $0x0,%eax
    4a88:	48 0f 45 c1          	cmovne %rcx,%rax
    4a8c:	48 83 e7 f8          	and    $0xfffffffffffffff8,%rdi
    4a90:	c6 03 21             	movb   $0x21,(%rbx)
    4a93:	48 89 43 38          	mov    %rax,0x38(%rbx)
    4a97:	89 d8                	mov    %ebx,%eax
    4a99:	4c 89 7b 21          	mov    %r15,0x21(%rbx)
    4a9d:	29 f8                	sub    %edi,%eax
    4a9f:	c7 43 29 2f 5f 5f 2a 	movl   $0x2a5f5f2f,0x29(%rbx)
    4aa6:	c6 43 2f 00          	movb   $0x0,0x2f(%rbx)
    4aaa:	8d 88 00 10 00 00    	lea    0x1000(%rax),%ecx
    4ab0:	4c 89 e0             	mov    %r12,%rax
    4ab3:	48 c7 43 40 00 00 00 	movq   $0x0,0x40(%rbx)
    4aba:	00 
    4abb:	0f 11 43 01          	movups %xmm0,0x1(%rbx)
    4abf:	c1 e9 03             	shr    $0x3,%ecx
    4ac2:	48 c7 83 f8 0f 00 00 	movq   $0x0,0xff8(%rbx)
    4ac9:	00 00 00 00 
    4acd:	4c 8d ab 00 10 00 00 	lea    0x1000(%rbx),%r13
    4ad4:	49 83 c6 01          	add    $0x1,%r14
    4ad8:	66 0f 6f 05 c0 2c 00 	movdqa 0x2cc0(%rip),%xmm0        # 77a0 <__PRETTY_FUNCTION__.3890+0x28>
    4adf:	00 
    4ae0:	0f 11 43 11          	movups %xmm0,0x11(%rbx)
    4ae4:	f3 48 ab             	rep stos %rax,%es:(%rdi)
    4ae7:	31 c0                	xor    %eax,%eax
    4ae9:	e8 32 d5 ff ff       	callq  2020 <sfence@plt>
    4aee:	be 00 10 00 00       	mov    $0x1000,%esi
    4af3:	48 89 df             	mov    %rbx,%rdi
    4af6:	e8 e5 d4 ff ff       	callq  1fe0 <clwb_range@plt>
    4afb:	48 8d bb 0d 10 00 00 	lea    0x100d(%rbx),%rdi
    4b02:	c7 83 04 10 00 00 fe 	movl   $0x7fffe,0x1004(%rbx)
    4b09:	ff 07 00 
    4b0c:	c6 83 00 10 00 00 11 	movb   $0x11,0x1000(%rbx)
    4b13:	48 c7 83 05 10 00 00 	movq   $0x0,0x1005(%rbx)
    4b1a:	00 00 00 00 
    4b1e:	48 c7 83 38 10 00 00 	movq   $0x0,0x1038(%rbx)
    4b25:	00 00 00 00 
    4b29:	4c 89 e0             	mov    %r12,%rax
    4b2c:	48 83 e7 f8          	and    $0xfffffffffffffff8,%rdi
    4b30:	29 fb                	sub    %edi,%ebx
    4b32:	8d 8b 40 10 00 00    	lea    0x1040(%rbx),%ecx
    4b38:	c1 e9 03             	shr    $0x3,%ecx
    4b3b:	f3 48 ab             	rep stos %rax,%es:(%rdi)
    4b3e:	31 c0                	xor    %eax,%eax
    4b40:	e8 db d4 ff ff       	callq  2020 <sfence@plt>
    4b45:	4c 89 ef             	mov    %r13,%rdi
    4b48:	e8 83 d5 ff ff       	callq  20d0 <clwb@plt>
    4b4d:	49 83 fe 03          	cmp    $0x3,%r14
    4b51:	0f 85 fd fe ff ff    	jne    4a54 <nvm_initialize_empty+0x64>
    4b57:	31 db                	xor    %ebx,%ebx
    4b59:	49 81 c6 fd ff ff 7f 	add    $0x7ffffffd,%r14
    4b60:	49 bd 00 00 00 80 01 	movabs $0x180000000,%r13
    4b67:	00 00 00 
    4b6a:	4c 8b 65 00          	mov    0x0(%rbp),%r12
    4b6e:	31 c0                	xor    %eax,%eax
    4b70:	49 01 dc             	add    %rbx,%r12
    4b73:	4c 01 f3             	add    %r14,%rbx
    4b76:	41 c6 04 24 22       	movb   $0x22,(%r12)
    4b7b:	e8 a0 d4 ff ff       	callq  2020 <sfence@plt>
    4b80:	4c 89 e7             	mov    %r12,%rdi
    4b83:	e8 48 d5 ff ff       	callq  20d0 <clwb@plt>
    4b88:	4c 39 eb             	cmp    %r13,%rbx
    4b8b:	75 dd                	jne    4b6a <nvm_initialize_empty+0x17a>
    4b8d:	bf 18 00 00 00       	mov    $0x18,%edi
    4b92:	31 db                	xor    %ebx,%ebx
    4b94:	e8 c7 d5 ff ff       	callq  2160 <malloc@plt>
    4b99:	4c 8b 2d 30 44 20 00 	mov    0x204430(%rip),%r13        # 208fd0 <arenas@@Base-0x990>
    4ba0:	49 89 45 00          	mov    %rax,0x0(%r13)
    4ba4:	bf 78 08 00 00       	mov    $0x878,%edi
    4ba9:	e8 b2 d5 ff ff       	callq  2160 <malloc@plt>
    4bae:	48 89 da             	mov    %rbx,%rdx
    4bb1:	89 de                	mov    %ebx,%esi
    4bb3:	48 89 c7             	mov    %rax,%rdi
    4bb6:	48 c1 e2 1f          	shl    $0x1f,%rdx
    4bba:	48 03 55 00          	add    0x0(%rbp),%rdx
    4bbe:	b9 01 00 00 00       	mov    $0x1,%ecx
    4bc3:	49 89 c4             	mov    %rax,%r12
    4bc6:	e8 d5 d5 ff ff       	callq  21a0 <arena_init@plt>
    4bcb:	49 8b 45 00          	mov    0x0(%r13),%rax
    4bcf:	4c 89 24 d8          	mov    %r12,(%rax,%rbx,8)
    4bd3:	48 83 c3 01          	add    $0x1,%rbx
    4bd7:	48 83 fb 03          	cmp    $0x3,%rbx
    4bdb:	75 c7                	jne    4ba4 <nvm_initialize_empty+0x1b4>
    4bdd:	48 83 c4 08          	add    $0x8,%rsp
    4be1:	5b                   	pop    %rbx
    4be2:	5d                   	pop    %rbp
    4be3:	41 5c                	pop    %r12
    4be5:	41 5d                	pop    %r13
    4be7:	41 5e                	pop    %r14
    4be9:	41 5f                	pop    %r15
    4beb:	c3                   	retq   
    4bec:	0f 1f 40 00          	nopl   0x0(%rax)

0000000000004bf0 <nvm_initialize_recovered>:
    4bf0:	41 57                	push   %r15
    4bf2:	41 56                	push   %r14
    4bf4:	41 55                	push   %r13
    4bf6:	41 54                	push   %r12
    4bf8:	55                   	push   %rbp
    4bf9:	53                   	push   %rbx
    4bfa:	31 db                	xor    %ebx,%ebx
    4bfc:	48 83 ec 38          	sub    $0x38,%rsp
    4c00:	48 89 7c 24 08       	mov    %rdi,0x8(%rsp)
    4c05:	bf 18 00 00 00       	mov    $0x18,%edi
    4c0a:	e8 51 d5 ff ff       	callq  2160 <malloc@plt>
    4c0f:	48 8b 35 ba 43 20 00 	mov    0x2043ba(%rip),%rsi        # 208fd0 <arenas@@Base-0x990>
    4c16:	48 89 06             	mov    %rax,(%rsi)
    4c19:	bf 78 08 00 00       	mov    $0x878,%edi
    4c1e:	e8 3d d5 ff ff       	callq  2160 <malloc@plt>
    4c23:	31 c9                	xor    %ecx,%ecx
    4c25:	31 d2                	xor    %edx,%edx
    4c27:	89 de                	mov    %ebx,%esi
    4c29:	48 89 c7             	mov    %rax,%rdi
    4c2c:	48 89 c5             	mov    %rax,%rbp
    4c2f:	e8 6c d5 ff ff       	callq  21a0 <arena_init@plt>
    4c34:	48 8b 05 95 43 20 00 	mov    0x204395(%rip),%rax        # 208fd0 <arenas@@Base-0x990>
    4c3b:	48 8b 00             	mov    (%rax),%rax
    4c3e:	48 89 2c d8          	mov    %rbp,(%rax,%rbx,8)
    4c42:	48 83 c3 01          	add    $0x1,%rbx
    4c46:	48 83 fb 03          	cmp    $0x3,%rbx
    4c4a:	75 cd                	jne    4c19 <nvm_initialize_recovered+0x29>
    4c4c:	4c 8b 25 35 43 20 00 	mov    0x204335(%rip),%r12        # 208f88 <max_log_entries@@Base-0x2a8>
    4c53:	49 8b 14 24          	mov    (%r12),%rdx
    4c57:	48 85 d2             	test   %rdx,%rdx
    4c5a:	0f 84 30 04 00 00    	je     5090 <nvm_initialize_recovered+0x4a0>
    4c60:	4c 8b 2d 49 43 20 00 	mov    0x204349(%rip),%r13        # 208fb0 <log_start@@Base-0xa00>
    4c67:	31 ed                	xor    %ebp,%ebp
    4c69:	49 8b 45 00          	mov    0x0(%r13),%rax
    4c6d:	eb 2e                	jmp    4c9d <nvm_initialize_recovered+0xad>
    4c6f:	90                   	nop
    4c70:	3c 30                	cmp    $0x30,%al
    4c72:	0f 84 a0 00 00 00    	je     4d18 <nvm_initialize_recovered+0x128>
    4c78:	3c 40                	cmp    $0x40,%al
    4c7a:	0f 84 f0 00 00 00    	je     4d70 <nvm_initialize_recovered+0x180>
    4c80:	49 8b 45 00          	mov    0x0(%r13),%rax
    4c84:	48 c7 04 18 00 00 00 	movq   $0x0,(%rax,%rbx,1)
    4c8b:	00 
    4c8c:	49 8b 14 24          	mov    (%r12),%rdx
    4c90:	48 83 c5 01          	add    $0x1,%rbp
    4c94:	48 39 d5             	cmp    %rdx,%rbp
    4c97:	0f 83 f3 03 00 00    	jae    5090 <nvm_initialize_recovered+0x4a0>
    4c9d:	48 8b 3c e8          	mov    (%rax,%rbp,8),%rdi
    4ca1:	48 8d 1c ed 00 00 00 	lea    0x0(,%rbp,8),%rbx
    4ca8:	00 
    4ca9:	48 85 ff             	test   %rdi,%rdi
    4cac:	74 e2                	je     4c90 <nvm_initialize_recovered+0xa0>
    4cae:	48 8b 05 cb 42 20 00 	mov    0x2042cb(%rip),%rax        # 208f80 <nvm_start@@Base-0xa68>
    4cb5:	48 03 38             	add    (%rax),%rdi
    4cb8:	49 89 ff             	mov    %rdi,%r15
    4cbb:	e8 00 d3 ff ff       	callq  1fc0 <identify_usage@plt>
    4cc0:	3c 50                	cmp    $0x50,%al
    4cc2:	75 ac                	jne    4c70 <nvm_initialize_recovered+0x80>
    4cc4:	41 0f b6 47 c0       	movzbl -0x40(%r15),%eax
    4cc9:	4d 8d 77 c0          	lea    -0x40(%r15),%r14
    4ccd:	83 e0 0f             	and    $0xf,%eax
    4cd0:	3c 04                	cmp    $0x4,%al
    4cd2:	0f 84 a0 02 00 00    	je     4f78 <nvm_initialize_recovered+0x388>
    4cd8:	3c 05                	cmp    $0x5,%al
    4cda:	0f 84 20 01 00 00    	je     4e00 <nvm_initialize_recovered+0x210>
    4ce0:	3c 06                	cmp    $0x6,%al
    4ce2:	0f 84 a8 01 00 00    	je     4e90 <nvm_initialize_recovered+0x2a0>
    4ce8:	3c 07                	cmp    $0x7,%al
    4cea:	0f 84 f8 01 00 00    	je     4ee8 <nvm_initialize_recovered+0x2f8>
    4cf0:	3c 02                	cmp    $0x2,%al
    4cf2:	74 8c                	je     4c80 <nvm_initialize_recovered+0x90>
    4cf4:	48 8d 0d f5 2a 00 00 	lea    0x2af5(%rip),%rcx        # 77f0 <__PRETTY_FUNCTION__.4791>
    4cfb:	48 8d 35 ae 2a 00 00 	lea    0x2aae(%rip),%rsi        # 77b0 <__PRETTY_FUNCTION__.3890+0x38>
    4d02:	48 8d 3d ca 2a 00 00 	lea    0x2aca(%rip),%rdi        # 77d3 <__PRETTY_FUNCTION__.3890+0x5b>
    4d09:	ba 7a 02 00 00       	mov    $0x27a,%edx
    4d0e:	e8 6d d3 ff ff       	callq  2080 <__assert_fail@plt>
    4d13:	0f 1f 44 00 00       	nopl   0x0(%rax,%rax,1)
    4d18:	49 81 e7 00 f0 ff ff 	and    $0xfffffffffffff000,%r15
    4d1f:	41 0f b6 07          	movzbl (%r15),%eax
    4d23:	83 e0 0f             	and    $0xf,%eax
    4d26:	3c 04                	cmp    $0x4,%al
    4d28:	0f 84 22 04 00 00    	je     5150 <nvm_initialize_recovered+0x560>
    4d2e:	3c 05                	cmp    $0x5,%al
    4d30:	0f 84 6a 02 00 00    	je     4fa0 <nvm_initialize_recovered+0x3b0>
    4d36:	3c 06                	cmp    $0x6,%al
    4d38:	0f 84 ea 02 00 00    	je     5028 <nvm_initialize_recovered+0x438>
    4d3e:	3c 07                	cmp    $0x7,%al
    4d40:	0f 84 82 03 00 00    	je     50c8 <nvm_initialize_recovered+0x4d8>
    4d46:	3c 02                	cmp    $0x2,%al
    4d48:	0f 84 32 ff ff ff    	je     4c80 <nvm_initialize_recovered+0x90>
    4d4e:	48 8d 0d 9b 2a 00 00 	lea    0x2a9b(%rip),%rcx        # 77f0 <__PRETTY_FUNCTION__.4791>
    4d55:	48 8d 35 54 2a 00 00 	lea    0x2a54(%rip),%rsi        # 77b0 <__PRETTY_FUNCTION__.3890+0x38>
    4d5c:	48 8d 3d 70 2a 00 00 	lea    0x2a70(%rip),%rdi        # 77d3 <__PRETTY_FUNCTION__.3890+0x5b>
    4d63:	ba b3 02 00 00       	mov    $0x2b3,%edx
    4d68:	e8 13 d3 ff ff       	callq  2080 <__assert_fail@plt>
    4d6d:	0f 1f 00             	nopl   (%rax)
    4d70:	4d 89 fe             	mov    %r15,%r14
    4d73:	49 81 e6 00 f0 ff ff 	and    $0xfffffffffffff000,%r14
    4d7a:	41 0f b6 06          	movzbl (%r14),%eax
    4d7e:	83 e0 0f             	and    $0xf,%eax
    4d81:	3c 04                	cmp    $0x4,%al
    4d83:	74 1c                	je     4da1 <nvm_initialize_recovered+0x1b1>
    4d85:	3c 05                	cmp    $0x5,%al
    4d87:	0f 84 f3 03 00 00    	je     5180 <nvm_initialize_recovered+0x590>
    4d8d:	3c 06                	cmp    $0x6,%al
    4d8f:	74 10                	je     4da1 <nvm_initialize_recovered+0x1b1>
    4d91:	3c 07                	cmp    $0x7,%al
    4d93:	0f 84 a4 04 00 00    	je     523d <nvm_initialize_recovered+0x64d>
    4d99:	3c 02                	cmp    $0x2,%al
    4d9b:	0f 85 56 05 00 00    	jne    52f7 <nvm_initialize_recovered+0x707>
    4da1:	4c 89 f7             	mov    %r14,%rdi
    4da4:	e8 e7 d1 ff ff       	callq  1f90 <arena_create_run_header@plt>
    4da9:	48 8b 50 20          	mov    0x20(%rax),%rdx
    4dad:	66 0f ef c0          	pxor   %xmm0,%xmm0
    4db1:	48 8b 4a 10          	mov    0x10(%rdx),%rcx
    4db5:	48 89 48 38          	mov    %rcx,0x38(%rax)
    4db9:	48 89 42 10          	mov    %rax,0x10(%rdx)
    4dbd:	48 8b 15 14 42 20 00 	mov    0x204214(%rip),%rdx        # 208fd8 <current_version@@Base-0x9e8>
    4dc4:	49 89 46 08          	mov    %rax,0x8(%r14)
    4dc8:	b8 ff ff ff ff       	mov    $0xffffffff,%eax
    4dcd:	41 0f 29 46 10       	movaps %xmm0,0x10(%r14)
    4dd2:	66 41 89 46 38       	mov    %ax,0x38(%r14)
    4dd7:	31 c0                	xor    %eax,%eax
    4dd9:	41 0f 29 46 20       	movaps %xmm0,0x20(%r14)
    4dde:	48 8b 12             	mov    (%rdx),%rdx
    4de1:	41 c6 06 42          	movb   $0x42,(%r14)
    4de5:	41 89 56 3c          	mov    %edx,0x3c(%r14)
    4de9:	e8 32 d2 ff ff       	callq  2020 <sfence@plt>
    4dee:	4c 89 f7             	mov    %r14,%rdi
    4df1:	e8 da d2 ff ff       	callq  20d0 <clwb@plt>
    4df6:	e9 85 fe ff ff       	jmpq   4c80 <nvm_initialize_recovered+0x90>
    4dfb:	0f 1f 44 00 00       	nopl   0x0(%rax,%rax,1)
    4e00:	49 8b 7f c8          	mov    -0x38(%r15),%rdi
    4e04:	48 85 ff             	test   %rdi,%rdi
    4e07:	0f 84 83 00 00 00    	je     4e90 <nvm_initialize_recovered+0x2a0>
    4e0d:	48 8b 05 6c 41 20 00 	mov    0x20416c(%rip),%rax        # 208f80 <nvm_start@@Base-0xa68>
    4e14:	49 8b 77 d0          	mov    -0x30(%r15),%rsi
    4e18:	31 c9                	xor    %ecx,%ecx
    4e1a:	48 89 4c 24 18       	mov    %rcx,0x18(%rsp)
    4e1f:	48 8b 00             	mov    (%rax),%rax
    4e22:	48 01 c7             	add    %rax,%rdi
    4e25:	48 01 f0             	add    %rsi,%rax
    4e28:	48 85 f6             	test   %rsi,%rsi
    4e2b:	48 0f 44 c1          	cmove  %rcx,%rax
    4e2f:	48 89 7c 24 10       	mov    %rdi,0x10(%rsp)
    4e34:	48 89 07             	mov    %rax,(%rdi)
    4e37:	31 c0                	xor    %eax,%eax
    4e39:	e8 e2 d1 ff ff       	callq  2020 <sfence@plt>
    4e3e:	48 8b 7c 24 10       	mov    0x10(%rsp),%rdi
    4e43:	e8 88 d2 ff ff       	callq  20d0 <clwb@plt>
    4e48:	49 8b 47 d8          	mov    -0x28(%r15),%rax
    4e4c:	48 85 c0             	test   %rax,%rax
    4e4f:	74 3f                	je     4e90 <nvm_initialize_recovered+0x2a0>
    4e51:	48 8b 0d 28 41 20 00 	mov    0x204128(%rip),%rcx        # 208f80 <nvm_start@@Base-0xa68>
    4e58:	48 8b 31             	mov    (%rcx),%rsi
    4e5b:	48 8b 4c 24 18       	mov    0x18(%rsp),%rcx
    4e60:	48 8d 3c 30          	lea    (%rax,%rsi,1),%rdi
    4e64:	49 8b 47 e0          	mov    -0x20(%r15),%rax
    4e68:	48 89 7c 24 10       	mov    %rdi,0x10(%rsp)
    4e6d:	48 01 c6             	add    %rax,%rsi
    4e70:	48 85 c0             	test   %rax,%rax
    4e73:	48 0f 45 ce          	cmovne %rsi,%rcx
    4e77:	31 c0                	xor    %eax,%eax
    4e79:	48 89 0f             	mov    %rcx,(%rdi)
    4e7c:	e8 9f d1 ff ff       	callq  2020 <sfence@plt>
    4e81:	48 8b 7c 24 10       	mov    0x10(%rsp),%rdi
    4e86:	e8 45 d2 ff ff       	callq  20d0 <clwb@plt>
    4e8b:	0f 1f 44 00 00       	nopl   0x0(%rax,%rax,1)
    4e90:	66 0f ef c0          	pxor   %xmm0,%xmm0
    4e94:	31 c0                	xor    %eax,%eax
    4e96:	41 0f 11 47 c8       	movups %xmm0,-0x38(%r15)
    4e9b:	41 0f 11 46 18       	movups %xmm0,0x18(%r14)
    4ea0:	41 c6 47 c0 12       	movb   $0x12,-0x40(%r15)
    4ea5:	e8 76 d1 ff ff       	callq  2020 <sfence@plt>
    4eaa:	4c 89 f7             	mov    %r14,%rdi
    4ead:	e8 1e d2 ff ff       	callq  20d0 <clwb@plt>
    4eb2:	bf 28 00 00 00       	mov    $0x28,%edi
    4eb7:	e8 a4 d2 ff ff       	callq  2160 <malloc@plt>
    4ebc:	41 8b 57 c4          	mov    -0x3c(%r15),%edx
    4ec0:	48 8b 35 c9 40 20 00 	mov    0x2040c9(%rip),%rsi        # 208f90 <chunk_node_compare@@Base+0x204b10>
    4ec7:	48 89 c7             	mov    %rax,%rdi
    4eca:	4c 89 70 18          	mov    %r14,0x18(%rax)
    4ece:	89 50 20             	mov    %edx,0x20(%rax)
    4ed1:	48 8b 15 18 41 20 00 	mov    0x204118(%rip),%rdx        # 208ff0 <free_chunks@@Base-0x9b8>
    4ed8:	e8 e3 d3 ff ff       	callq  22c0 <tree_add@plt>
    4edd:	e9 9e fd ff ff       	jmpq   4c80 <nvm_initialize_recovered+0x90>
    4ee2:	66 0f 1f 44 00 00    	nopw   0x0(%rax,%rax,1)
    4ee8:	49 8b 47 c8          	mov    -0x38(%r15),%rax
    4eec:	48 85 c0             	test   %rax,%rax
    4eef:	0f 84 83 00 00 00    	je     4f78 <nvm_initialize_recovered+0x388>
    4ef5:	48 8b 0d 84 40 20 00 	mov    0x204084(%rip),%rcx        # 208f80 <nvm_start@@Base-0xa68>
    4efc:	4d 8b 4f d0          	mov    -0x30(%r15),%r9
    4f00:	31 f6                	xor    %esi,%esi
    4f02:	48 89 74 24 18       	mov    %rsi,0x18(%rsp)
    4f07:	48 8b 09             	mov    (%rcx),%rcx
    4f0a:	4d 85 c9             	test   %r9,%r9
    4f0d:	48 8d 3c 08          	lea    (%rax,%rcx,1),%rdi
    4f11:	4a 8d 04 09          	lea    (%rcx,%r9,1),%rax
    4f15:	48 0f 44 c6          	cmove  %rsi,%rax
    4f19:	48 89 7c 24 10       	mov    %rdi,0x10(%rsp)
    4f1e:	48 89 07             	mov    %rax,(%rdi)
    4f21:	31 c0                	xor    %eax,%eax
    4f23:	e8 f8 d0 ff ff       	callq  2020 <sfence@plt>
    4f28:	48 8b 7c 24 10       	mov    0x10(%rsp),%rdi
    4f2d:	e8 9e d1 ff ff       	callq  20d0 <clwb@plt>
    4f32:	49 8b 47 d8          	mov    -0x28(%r15),%rax
    4f36:	48 85 c0             	test   %rax,%rax
    4f39:	74 3d                	je     4f78 <nvm_initialize_recovered+0x388>
    4f3b:	48 8b 35 3e 40 20 00 	mov    0x20403e(%rip),%rsi        # 208f80 <nvm_start@@Base-0xa68>
    4f42:	48 8b 0e             	mov    (%rsi),%rcx
    4f45:	48 8b 74 24 18       	mov    0x18(%rsp),%rsi
    4f4a:	48 8d 3c 08          	lea    (%rax,%rcx,1),%rdi
    4f4e:	49 8b 47 e0          	mov    -0x20(%r15),%rax
    4f52:	48 89 7c 24 10       	mov    %rdi,0x10(%rsp)
    4f57:	48 01 c1             	add    %rax,%rcx
    4f5a:	48 85 c0             	test   %rax,%rax
    4f5d:	48 0f 45 f1          	cmovne %rcx,%rsi
    4f61:	31 c0                	xor    %eax,%eax
    4f63:	48 89 37             	mov    %rsi,(%rdi)
    4f66:	e8 b5 d0 ff ff       	callq  2020 <sfence@plt>
    4f6b:	48 8b 7c 24 10       	mov    0x10(%rsp),%rdi
    4f70:	e8 5b d1 ff ff       	callq  20d0 <clwb@plt>
    4f75:	0f 1f 00             	nopl   (%rax)
    4f78:	66 0f ef c0          	pxor   %xmm0,%xmm0
    4f7c:	31 c0                	xor    %eax,%eax
    4f7e:	41 0f 11 47 c8       	movups %xmm0,-0x38(%r15)
    4f83:	41 0f 11 46 18       	movups %xmm0,0x18(%r14)
    4f88:	41 c6 47 c0 52       	movb   $0x52,-0x40(%r15)
    4f8d:	e8 8e d0 ff ff       	callq  2020 <sfence@plt>
    4f92:	4c 89 f7             	mov    %r14,%rdi
    4f95:	e8 36 d1 ff ff       	callq  20d0 <clwb@plt>
    4f9a:	e9 e1 fc ff ff       	jmpq   4c80 <nvm_initialize_recovered+0x90>
    4f9f:	90                   	nop
    4fa0:	49 8b 47 08          	mov    0x8(%r15),%rax
    4fa4:	48 85 c0             	test   %rax,%rax
    4fa7:	74 7f                	je     5028 <nvm_initialize_recovered+0x438>
    4fa9:	48 8b 0d d0 3f 20 00 	mov    0x203fd0(%rip),%rcx        # 208f80 <nvm_start@@Base-0xa68>
    4fb0:	49 8b 77 10          	mov    0x10(%r15),%rsi
    4fb4:	45 31 f6             	xor    %r14d,%r14d
    4fb7:	48 8b 11             	mov    (%rcx),%rdx
    4fba:	48 85 f6             	test   %rsi,%rsi
    4fbd:	48 8d 3c 10          	lea    (%rax,%rdx,1),%rdi
    4fc1:	48 8d 04 32          	lea    (%rdx,%rsi,1),%rax
    4fc5:	49 0f 44 c6          	cmove  %r14,%rax
    4fc9:	48 89 7c 24 10       	mov    %rdi,0x10(%rsp)
    4fce:	48 89 07             	mov    %rax,(%rdi)
    4fd1:	31 c0                	xor    %eax,%eax
    4fd3:	e8 48 d0 ff ff       	callq  2020 <sfence@plt>
    4fd8:	48 8b 7c 24 10       	mov    0x10(%rsp),%rdi
    4fdd:	e8 ee d0 ff ff       	callq  20d0 <clwb@plt>
    4fe2:	49 8b 47 18          	mov    0x18(%r15),%rax
    4fe6:	48 85 c0             	test   %rax,%rax
    4fe9:	74 3d                	je     5028 <nvm_initialize_recovered+0x438>
    4feb:	48 8b 35 8e 3f 20 00 	mov    0x203f8e(%rip),%rsi        # 208f80 <nvm_start@@Base-0xa68>
    4ff2:	4c 89 f1             	mov    %r14,%rcx
    4ff5:	48 8b 16             	mov    (%rsi),%rdx
    4ff8:	48 8d 3c 10          	lea    (%rax,%rdx,1),%rdi
    4ffc:	49 8b 47 20          	mov    0x20(%r15),%rax
    5000:	48 89 7c 24 10       	mov    %rdi,0x10(%rsp)
    5005:	48 01 c2             	add    %rax,%rdx
    5008:	48 85 c0             	test   %rax,%rax
    500b:	48 0f 45 ca          	cmovne %rdx,%rcx
    500f:	31 c0                	xor    %eax,%eax
    5011:	48 89 0f             	mov    %rcx,(%rdi)
    5014:	e8 07 d0 ff ff       	callq  2020 <sfence@plt>
    5019:	48 8b 7c 24 10       	mov    0x10(%rsp),%rdi
    501e:	e8 ad d0 ff ff       	callq  20d0 <clwb@plt>
    5023:	0f 1f 44 00 00       	nopl   0x0(%rax,%rax,1)
    5028:	66 0f ef c0          	pxor   %xmm0,%xmm0
    502c:	31 c0                	xor    %eax,%eax
    502e:	41 c6 07 12          	movb   $0x12,(%r15)
    5032:	41 0f 11 47 08       	movups %xmm0,0x8(%r15)
    5037:	41 0f 11 47 18       	movups %xmm0,0x18(%r15)
    503c:	e8 df cf ff ff       	callq  2020 <sfence@plt>
    5041:	4c 89 ff             	mov    %r15,%rdi
    5044:	e8 87 d0 ff ff       	callq  20d0 <clwb@plt>
    5049:	bf 30 00 00 00       	mov    $0x30,%edi
    504e:	e8 0d d1 ff ff       	callq  2160 <malloc@plt>
    5053:	41 8b 57 04          	mov    0x4(%r15),%edx
    5057:	48 8b 35 72 3f 20 00 	mov    0x203f72(%rip),%rsi        # 208fd0 <arenas@@Base-0x990>
    505e:	48 89 c7             	mov    %rax,%rdi
    5061:	4c 89 78 18          	mov    %r15,0x18(%rax)
    5065:	89 50 20             	mov    %edx,0x20(%rax)
    5068:	41 8b 4f 28          	mov    0x28(%r15),%ecx
    506c:	48 8b 16             	mov    (%rsi),%rdx
    506f:	48 8b 35 32 3f 20 00 	mov    0x203f32(%rip),%rsi        # 208fa8 <block_node_compare@@Base+0x2059f8>
    5076:	48 8b 14 ca          	mov    (%rdx,%rcx,8),%rdx
    507a:	48 89 50 28          	mov    %rdx,0x28(%rax)
    507e:	48 81 c2 48 08 00 00 	add    $0x848,%rdx
    5085:	e8 36 d2 ff ff       	callq  22c0 <tree_add@plt>
    508a:	e9 f1 fb ff ff       	jmpq   4c80 <nvm_initialize_recovered+0x90>
    508f:	90                   	nop
    5090:	48 8b 4c 24 08       	mov    0x8(%rsp),%rcx
    5095:	48 8b 15 d4 3e 20 00 	mov    0x203ed4(%rip),%rdx        # 208f70 <nvm_recovery_thread@@Base+0x204ad0>
    509c:	48 8d 7c 24 28       	lea    0x28(%rsp),%rdi
    50a1:	31 f6                	xor    %esi,%esi
    50a3:	e8 48 ce ff ff       	callq  1ef0 <pthread_create@plt>
    50a8:	48 8b 7c 24 28       	mov    0x28(%rsp),%rdi
    50ad:	e8 5e ce ff ff       	callq  1f10 <pthread_detach@plt>
    50b2:	48 83 c4 38          	add    $0x38,%rsp
    50b6:	5b                   	pop    %rbx
    50b7:	5d                   	pop    %rbp
    50b8:	41 5c                	pop    %r12
    50ba:	41 5d                	pop    %r13
    50bc:	41 5e                	pop    %r14
    50be:	41 5f                	pop    %r15
    50c0:	c3                   	retq   
    50c1:	0f 1f 80 00 00 00 00 	nopl   0x0(%rax)
    50c8:	49 8b 47 08          	mov    0x8(%r15),%rax
    50cc:	48 85 c0             	test   %rax,%rax
    50cf:	74 7f                	je     5150 <nvm_initialize_recovered+0x560>
    50d1:	48 8b 0d a8 3e 20 00 	mov    0x203ea8(%rip),%rcx        # 208f80 <nvm_start@@Base-0xa68>
    50d8:	49 8b 77 10          	mov    0x10(%r15),%rsi
    50dc:	45 31 f6             	xor    %r14d,%r14d
    50df:	48 8b 11             	mov    (%rcx),%rdx
    50e2:	48 85 f6             	test   %rsi,%rsi
    50e5:	48 8d 3c 10          	lea    (%rax,%rdx,1),%rdi
    50e9:	48 8d 04 32          	lea    (%rdx,%rsi,1),%rax
    50ed:	49 0f 44 c6          	cmove  %r14,%rax
    50f1:	48 89 7c 24 10       	mov    %rdi,0x10(%rsp)
    50f6:	48 89 07             	mov    %rax,(%rdi)
    50f9:	31 c0                	xor    %eax,%eax
    50fb:	e8 20 cf ff ff       	callq  2020 <sfence@plt>
    5100:	48 8b 7c 24 10       	mov    0x10(%rsp),%rdi
    5105:	e8 c6 cf ff ff       	callq  20d0 <clwb@plt>
    510a:	49 8b 47 18          	mov    0x18(%r15),%rax
    510e:	48 85 c0             	test   %rax,%rax
    5111:	74 3d                	je     5150 <nvm_initialize_recovered+0x560>
    5113:	48 8b 35 66 3e 20 00 	mov    0x203e66(%rip),%rsi        # 208f80 <nvm_start@@Base-0xa68>
    511a:	4c 89 f1             	mov    %r14,%rcx
    511d:	48 8b 16             	mov    (%rsi),%rdx
    5120:	48 8d 3c 10          	lea    (%rax,%rdx,1),%rdi
    5124:	49 8b 47 20          	mov    0x20(%r15),%rax
    5128:	48 89 7c 24 10       	mov    %rdi,0x10(%rsp)
    512d:	48 01 c2             	add    %rax,%rdx
    5130:	48 85 c0             	test   %rax,%rax
    5133:	48 0f 45 ca          	cmovne %rdx,%rcx
    5137:	31 c0                	xor    %eax,%eax
    5139:	48 89 0f             	mov    %rcx,(%rdi)
    513c:	e8 df ce ff ff       	callq  2020 <sfence@plt>
    5141:	48 8b 7c 24 10       	mov    0x10(%rsp),%rdi
    5146:	e8 85 cf ff ff       	callq  20d0 <clwb@plt>
    514b:	0f 1f 44 00 00       	nopl   0x0(%rax,%rax,1)
    5150:	66 0f ef c0          	pxor   %xmm0,%xmm0
    5154:	41 c6 07 32          	movb   $0x32,(%r15)
    5158:	31 c0                	xor    %eax,%eax
    515a:	41 0f 11 47 08       	movups %xmm0,0x8(%r15)
    515f:	41 0f 11 47 18       	movups %xmm0,0x18(%r15)
    5164:	e8 b7 ce ff ff       	callq  2020 <sfence@plt>
    5169:	4c 89 ff             	mov    %r15,%rdi
    516c:	e8 5f cf ff ff       	callq  20d0 <clwb@plt>
    5171:	e9 0a fb ff ff       	jmpq   4c80 <nvm_initialize_recovered+0x90>
    5176:	66 2e 0f 1f 84 00 00 	nopw   %cs:0x0(%rax,%rax,1)
    517d:	00 00 00 
    5180:	49 8b 46 10          	mov    0x10(%r14),%rax
    5184:	48 85 c0             	test   %rax,%rax
    5187:	74 79                	je     5202 <nvm_initialize_recovered+0x612>
    5189:	48 8b 0d f0 3d 20 00 	mov    0x203df0(%rip),%rcx        # 208f80 <nvm_start@@Base-0xa68>
    5190:	49 8b 76 18          	mov    0x18(%r14),%rsi
    5194:	48 8b 11             	mov    (%rcx),%rdx
    5197:	31 c9                	xor    %ecx,%ecx
    5199:	48 85 f6             	test   %rsi,%rsi
    519c:	48 89 4c 24 18       	mov    %rcx,0x18(%rsp)
    51a1:	48 8d 3c 10          	lea    (%rax,%rdx,1),%rdi
    51a5:	48 8d 04 32          	lea    (%rdx,%rsi,1),%rax
    51a9:	48 0f 44 c1          	cmove  %rcx,%rax
    51ad:	48 89 7c 24 10       	mov    %rdi,0x10(%rsp)
    51b2:	48 89 07             	mov    %rax,(%rdi)
    51b5:	31 c0                	xor    %eax,%eax
    51b7:	e8 64 ce ff ff       	callq  2020 <sfence@plt>
    51bc:	48 8b 7c 24 10       	mov    0x10(%rsp),%rdi
    51c1:	e8 0a cf ff ff       	callq  20d0 <clwb@plt>
    51c6:	49 8b 46 20          	mov    0x20(%r14),%rax
    51ca:	48 85 c0             	test   %rax,%rax
    51cd:	74 33                	je     5202 <nvm_initialize_recovered+0x612>
    51cf:	48 8b 35 aa 3d 20 00 	mov    0x203daa(%rip),%rsi        # 208f80 <nvm_start@@Base-0xa68>
    51d6:	48 8b 4c 24 18       	mov    0x18(%rsp),%rcx
    51db:	48 8b 16             	mov    (%rsi),%rdx
    51de:	4c 8d 3c 10          	lea    (%rax,%rdx,1),%r15
    51e2:	49 8b 46 28          	mov    0x28(%r14),%rax
    51e6:	48 01 c2             	add    %rax,%rdx
    51e9:	48 85 c0             	test   %rax,%rax
    51ec:	48 0f 45 ca          	cmovne %rdx,%rcx
    51f0:	31 c0                	xor    %eax,%eax
    51f2:	49 89 0f             	mov    %rcx,(%r15)
    51f5:	e8 26 ce ff ff       	callq  2020 <sfence@plt>
    51fa:	4c 89 ff             	mov    %r15,%rdi
    51fd:	e8 ce ce ff ff       	callq  20d0 <clwb@plt>
    5202:	41 0f b7 46 38       	movzwl 0x38(%r14),%eax
    5207:	8d 50 07             	lea    0x7(%rax),%edx
    520a:	66 85 c0             	test   %ax,%ax
    520d:	89 c6                	mov    %eax,%esi
    520f:	0f 49 d0             	cmovns %eax,%edx
    5212:	66 c1 fe 0f          	sar    $0xf,%si
    5216:	66 c1 ee 0d          	shr    $0xd,%si
    521a:	66 c1 fa 03          	sar    $0x3,%dx
    521e:	8d 0c 30             	lea    (%rax,%rsi,1),%ecx
    5221:	b8 01 00 00 00       	mov    $0x1,%eax
    5226:	48 0f bf d2          	movswq %dx,%rdx
    522a:	83 e1 07             	and    $0x7,%ecx
    522d:	29 f1                	sub    %esi,%ecx
    522f:	d3 e0                	shl    %cl,%eax
    5231:	f7 d0                	not    %eax
    5233:	41 20 44 16 30       	and    %al,0x30(%r14,%rdx,1)
    5238:	e9 64 fb ff ff       	jmpq   4da1 <nvm_initialize_recovered+0x1b1>
    523d:	49 8b 46 10          	mov    0x10(%r14),%rax
    5241:	48 85 c0             	test   %rax,%rax
    5244:	74 78                	je     52be <nvm_initialize_recovered+0x6ce>
    5246:	48 8b 0d 33 3d 20 00 	mov    0x203d33(%rip),%rcx        # 208f80 <nvm_start@@Base-0xa68>
    524d:	48 8b 11             	mov    (%rcx),%rdx
    5250:	49 8b 4e 18          	mov    0x18(%r14),%rcx
    5254:	48 8d 3c 10          	lea    (%rax,%rdx,1),%rdi
    5258:	48 8d 04 0a          	lea    (%rdx,%rcx,1),%rax
    525c:	48 85 c9             	test   %rcx,%rcx
    525f:	ba 00 00 00 00       	mov    $0x0,%edx
    5264:	48 0f 44 c2          	cmove  %rdx,%rax
    5268:	48 89 7c 24 10       	mov    %rdi,0x10(%rsp)
    526d:	48 89 07             	mov    %rax,(%rdi)
    5270:	31 c0                	xor    %eax,%eax
    5272:	e8 a9 cd ff ff       	callq  2020 <sfence@plt>
    5277:	48 8b 7c 24 10       	mov    0x10(%rsp),%rdi
    527c:	e8 4f ce ff ff       	callq  20d0 <clwb@plt>
    5281:	49 8b 46 20          	mov    0x20(%r14),%rax
    5285:	48 85 c0             	test   %rax,%rax
    5288:	74 34                	je     52be <nvm_initialize_recovered+0x6ce>
    528a:	48 8b 35 ef 3c 20 00 	mov    0x203cef(%rip),%rsi        # 208f80 <nvm_start@@Base-0xa68>
    5291:	49 8b 4e 28          	mov    0x28(%r14),%rcx
    5295:	48 8b 16             	mov    (%rsi),%rdx
    5298:	48 85 c9             	test   %rcx,%rcx
    529b:	4c 8d 3c 10          	lea    (%rax,%rdx,1),%r15
    529f:	48 8d 04 0a          	lea    (%rdx,%rcx,1),%rax
    52a3:	ba 00 00 00 00       	mov    $0x0,%edx
    52a8:	48 0f 44 c2          	cmove  %rdx,%rax
    52ac:	49 89 07             	mov    %rax,(%r15)
    52af:	31 c0                	xor    %eax,%eax
    52b1:	e8 6a cd ff ff       	callq  2020 <sfence@plt>
    52b6:	4c 89 ff             	mov    %r15,%rdi
    52b9:	e8 12 ce ff ff       	callq  20d0 <clwb@plt>
    52be:	41 0f b7 46 38       	movzwl 0x38(%r14),%eax
    52c3:	8d 50 07             	lea    0x7(%rax),%edx
    52c6:	66 85 c0             	test   %ax,%ax
    52c9:	89 c6                	mov    %eax,%esi
    52cb:	0f 49 d0             	cmovns %eax,%edx
    52ce:	66 c1 fe 0f          	sar    $0xf,%si
    52d2:	66 c1 ee 0d          	shr    $0xd,%si
    52d6:	66 c1 fa 03          	sar    $0x3,%dx
    52da:	8d 0c 30             	lea    (%rax,%rsi,1),%ecx
    52dd:	48 0f bf d2          	movswq %dx,%rdx
    52e1:	b8 01 00 00 00       	mov    $0x1,%eax
    52e6:	83 e1 07             	and    $0x7,%ecx
    52e9:	29 f1                	sub    %esi,%ecx
    52eb:	d3 e0                	shl    %cl,%eax
    52ed:	41 08 44 16 30       	or     %al,0x30(%r14,%rdx,1)
    52f2:	e9 aa fa ff ff       	jmpq   4da1 <nvm_initialize_recovered+0x1b1>
    52f7:	48 8d 0d f2 24 00 00 	lea    0x24f2(%rip),%rcx        # 77f0 <__PRETTY_FUNCTION__.4791>
    52fe:	48 8d 35 ab 24 00 00 	lea    0x24ab(%rip),%rsi        # 77b0 <__PRETTY_FUNCTION__.3890+0x38>
    5305:	48 8d 3d c7 24 00 00 	lea    0x24c7(%rip),%rdi        # 77d3 <__PRETTY_FUNCTION__.3890+0x5b>
    530c:	ba d8 02 00 00       	mov    $0x2d8,%edx
    5311:	e8 6a cd ff ff       	callq  2080 <__assert_fail@plt>
    5316:	66 2e 0f 1f 84 00 00 	nopw   %cs:0x0(%rax,%rax,1)
    531d:	00 00 00 

0000000000005320 <nvm_initialize>:
    5320:	41 54                	push   %r12
    5322:	55                   	push   %rbp
    5323:	53                   	push   %rbx
    5324:	48 8b 1d 55 3c 20 00 	mov    0x203c55(%rip),%rbx        # 208f80 <nvm_start@@Base-0xa68>
    532b:	48 8b 03             	mov    (%rbx),%rax
    532e:	48 85 c0             	test   %rax,%rax
    5331:	74 0d                	je     5340 <nvm_initialize+0x20>
    5333:	5b                   	pop    %rbx
    5334:	5d                   	pop    %rbp
    5335:	41 5c                	pop    %r12
    5337:	c3                   	retq   
    5338:	0f 1f 84 00 00 00 00 	nopl   0x0(%rax,%rax,1)
    533f:	00 
    5340:	89 f5                	mov    %esi,%ebp
    5342:	be 32 00 00 00       	mov    $0x32,%esi
    5347:	e8 e4 ce ff ff       	callq  2230 <initalize_nvm_space@plt>
    534c:	bf 18 00 00 00       	mov    $0x18,%edi
    5351:	48 89 03             	mov    %rax,(%rbx)
    5354:	e8 07 ce ff ff       	callq  2160 <malloc@plt>
    5359:	48 85 c0             	test   %rax,%rax
    535c:	49 89 c4             	mov    %rax,%r12
    535f:	74 2e                	je     538f <nvm_initialize+0x6f>
    5361:	be 08 00 00 00       	mov    $0x8,%esi
    5366:	bf 04 00 00 00       	mov    $0x4,%edi
    536b:	e8 80 cd ff ff       	callq  20f0 <calloc@plt>
    5370:	48 85 c0             	test   %rax,%rax
    5373:	49 89 44 24 08       	mov    %rax,0x8(%r12)
    5378:	0f 84 bd 00 00 00    	je     543b <nvm_initialize+0x11b>
    537e:	49 c7 04 24 03 00 00 	movq   $0x3,(%r12)
    5385:	00 
    5386:	49 c7 44 24 10 00 00 	movq   $0x0,0x10(%r12)
    538d:	00 00 
    538f:	85 ed                	test   %ebp,%ebp
    5391:	4c 89 25 58 46 20 00 	mov    %r12,0x204658(%rip)        # 2099f0 <tidmap>
    5398:	74 0f                	je     53a9 <nvm_initialize+0x89>
    539a:	31 c0                	xor    %eax,%eax
    539c:	e8 ff cb ff ff       	callq  1fa0 <recover_chunks@plt>
    53a1:	48 85 c0             	test   %rax,%rax
    53a4:	48 89 c5             	mov    %rax,%rbp
    53a7:	75 37                	jne    53e0 <nvm_initialize+0xc0>
    53a9:	31 c0                	xor    %eax,%eax
    53ab:	e8 00 cd ff ff       	callq  20b0 <nvm_initialize_empty@plt>
    53b0:	48 8b 05 e9 3b 20 00 	mov    0x203be9(%rip),%rax        # 208fa0 <meta_info@@Base-0x2c0>
    53b7:	48 8b 15 f2 3b 20 00 	mov    0x203bf2(%rip),%rdx        # 208fb0 <log_start@@Base-0xa00>
    53be:	48 8b 3b             	mov    (%rbx),%rdi
    53c1:	48 8b 00             	mov    (%rax),%rax
    53c4:	48 83 c0 08          	add    $0x8,%rax
    53c8:	48 89 02             	mov    %rax,(%rdx)
    53cb:	e8 a0 cc ff ff       	callq  2070 <ot_init@plt>
    53d0:	48 8b 03             	mov    (%rbx),%rax
    53d3:	5b                   	pop    %rbx
    53d4:	5d                   	pop    %rbp
    53d5:	41 5c                	pop    %r12
    53d7:	c3                   	retq   
    53d8:	0f 1f 84 00 00 00 00 	nopl   0x0(%rax,%rax,1)
    53df:	00 
    53e0:	4c 8b 25 b9 3b 20 00 	mov    0x203bb9(%rip),%r12        # 208fa0 <meta_info@@Base-0x2c0>
    53e7:	49 8b 14 24          	mov    (%r12),%rdx
    53eb:	48 8b 02             	mov    (%rdx),%rax
    53ee:	48 8d 48 01          	lea    0x1(%rax),%rcx
    53f2:	48 89 0a             	mov    %rcx,(%rdx)
    53f5:	48 8b 15 dc 3b 20 00 	mov    0x203bdc(%rip),%rdx        # 208fd8 <current_version@@Base-0x9e8>
    53fc:	48 89 02             	mov    %rax,(%rdx)
    53ff:	31 c0                	xor    %eax,%eax
    5401:	e8 1a cc ff ff       	callq  2020 <sfence@plt>
    5406:	49 8b 3c 24          	mov    (%r12),%rdi
    540a:	e8 c1 cc ff ff       	callq  20d0 <clwb@plt>
    540f:	49 8b 04 24          	mov    (%r12),%rax
    5413:	48 8b 15 96 3b 20 00 	mov    0x203b96(%rip),%rdx        # 208fb0 <log_start@@Base-0xa00>
    541a:	48 89 ef             	mov    %rbp,%rdi
    541d:	48 83 c0 08          	add    $0x8,%rax
    5421:	48 89 02             	mov    %rax,(%rdx)
    5424:	e8 d7 cc ff ff       	callq  2100 <nvm_initialize_recovered@plt>
    5429:	48 8b 3b             	mov    (%rbx),%rdi
    542c:	e8 3f cc ff ff       	callq  2070 <ot_init@plt>
    5431:	48 8b 3b             	mov    (%rbx),%rdi
    5434:	e8 57 cd ff ff       	callq  2190 <ot_recover@plt>
    5439:	eb 95                	jmp    53d0 <nvm_initialize+0xb0>
    543b:	4c 89 e7             	mov    %r12,%rdi
    543e:	45 31 e4             	xor    %r12d,%r12d
    5441:	e8 9a ca ff ff       	callq  1ee0 <free@plt>
    5446:	e9 44 ff ff ff       	jmpq   538f <nvm_initialize+0x6f>
    544b:	0f 1f 44 00 00       	nopl   0x0(%rax,%rax,1)

0000000000005450 <nvm_reserve_huge>:
    5450:	55                   	push   %rbp
    5451:	53                   	push   %rbx
    5452:	48 89 fd             	mov    %rdi,%rbp
    5455:	48 83 ec 08          	sub    $0x8,%rsp
    5459:	e8 92 cd ff ff       	callq  21f0 <activate_more_chunks@plt>
    545e:	66 0f ef c0          	pxor   %xmm0,%xmm0
    5462:	48 89 c3             	mov    %rax,%rbx
    5465:	89 68 04             	mov    %ebp,0x4(%rax)
    5468:	c6 00 51             	movb   $0x51,(%rax)
    546b:	0f 11 40 08          	movups %xmm0,0x8(%rax)
    546f:	0f 11 40 18          	movups %xmm0,0x18(%rax)
    5473:	31 c0                	xor    %eax,%eax
    5475:	e8 a6 cb ff ff       	callq  2020 <sfence@plt>
    547a:	48 89 df             	mov    %rbx,%rdi
    547d:	e8 4e cc ff ff       	callq  20d0 <clwb@plt>
    5482:	48 83 c4 08          	add    $0x8,%rsp
    5486:	48 89 d8             	mov    %rbx,%rax
    5489:	5b                   	pop    %rbx
    548a:	5d                   	pop    %rbp
    548b:	c3                   	retq   
    548c:	0f 1f 40 00          	nopl   0x0(%rax)

0000000000005490 <nvm_reserve>:
    5490:	48 81 ff c0 ff ff 3f 	cmp    $0x3fffffc0,%rdi
    5497:	41 56                	push   %r14
    5499:	41 55                	push   %r13
    549b:	41 54                	push   %r12
    549d:	55                   	push   %rbp
    549e:	53                   	push   %rbx
    549f:	48 89 fb             	mov    %rdi,%rbx
    54a2:	0f 87 b8 00 00 00    	ja     5560 <nvm_reserve+0xd0>
    54a8:	48 8b 05 41 45 20 00 	mov    0x204541(%rip),%rax        # 2099f0 <tidmap>
    54af:	48 8b 40 08          	mov    0x8(%rax),%rax
    54b3:	48 8b 00             	mov    (%rax),%rax
    54b6:	48 85 c0             	test   %rax,%rax
    54b9:	75 0e                	jne    54c9 <nvm_reserve+0x39>
    54bb:	eb 33                	jmp    54f0 <nvm_reserve+0x60>
    54bd:	0f 1f 00             	nopl   (%rax)
    54c0:	48 8b 40 08          	mov    0x8(%rax),%rax
    54c4:	48 85 c0             	test   %rax,%rax
    54c7:	74 27                	je     54f0 <nvm_reserve+0x60>
    54c9:	8b 50 10             	mov    0x10(%rax),%edx
    54cc:	85 d2                	test   %edx,%edx
    54ce:	75 f0                	jne    54c0 <nvm_reserve+0x30>
    54d0:	48 8b 68 18          	mov    0x18(%rax),%rbp
    54d4:	89 de                	mov    %ebx,%esi
    54d6:	48 89 ef             	mov    %rbp,%rdi
    54d9:	5b                   	pop    %rbx
    54da:	5d                   	pop    %rbp
    54db:	41 5c                	pop    %r12
    54dd:	41 5d                	pop    %r13
    54df:	41 5e                	pop    %r14
    54e1:	e9 fa cc ff ff       	jmpq   21e0 <arena_allocate@plt>
    54e6:	66 2e 0f 1f 84 00 00 	nopw   %cs:0x0(%rax,%rax,1)
    54ed:	00 00 00 
    54f0:	b9 01 00 00 00       	mov    $0x1,%ecx
    54f5:	f0 0f c1 0d fb 44 20 	lock xadd %ecx,0x2044fb(%rip)        # 2099f8 <next_arena>
    54fc:	00 
    54fd:	ba ab aa aa aa       	mov    $0xaaaaaaab,%edx
    5502:	bf 20 00 00 00       	mov    $0x20,%edi
    5507:	4c 8b 25 e2 44 20 00 	mov    0x2044e2(%rip),%r12        # 2099f0 <tidmap>
    550e:	89 c8                	mov    %ecx,%eax
    5510:	f7 e2                	mul    %edx
    5512:	d1 ea                	shr    %edx
    5514:	8d 04 52             	lea    (%rdx,%rdx,2),%eax
    5517:	29 c1                	sub    %eax,%ecx
    5519:	48 8b 05 b0 3a 20 00 	mov    0x203ab0(%rip),%rax        # 208fd0 <arenas@@Base-0x990>
    5520:	48 8b 00             	mov    (%rax),%rax
    5523:	48 8b 2c c8          	mov    (%rax,%rcx,8),%rbp
    5527:	e8 34 cc ff ff       	callq  2160 <malloc@plt>
    552c:	48 85 c0             	test   %rax,%rax
    552f:	0f 84 4b 01 00 00    	je     5680 <nvm_reserve+0x1f0>
    5535:	49 8b 54 24 08       	mov    0x8(%r12),%rdx
    553a:	48 8b 0a             	mov    (%rdx),%rcx
    553d:	48 c7 00 00 00 00 00 	movq   $0x0,(%rax)
    5544:	c7 40 10 00 00 00 00 	movl   $0x0,0x10(%rax)
    554b:	48 89 48 08          	mov    %rcx,0x8(%rax)
    554f:	48 89 02             	mov    %rax,(%rdx)
    5552:	48 89 68 18          	mov    %rbp,0x18(%rax)
    5556:	e9 79 ff ff ff       	jmpq   54d4 <nvm_reserve+0x44>
    555b:	0f 1f 44 00 00       	nopl   0x0(%rax,%rax,1)
    5560:	4c 8b 25 59 3a 20 00 	mov    0x203a59(%rip),%r12        # 208fc0 <chunk_mtx@@Base-0x9c0>
    5567:	bd 40 00 00 80       	mov    $0x80000040,%ebp
    556c:	48 01 fd             	add    %rdi,%rbp
    556f:	48 c1 ed 1f          	shr    $0x1f,%rbp
    5573:	4c 89 e7             	mov    %r12,%rdi
    5576:	e8 25 cd ff ff       	callq  22a0 <pthread_mutex_lock@plt>
    557b:	4c 8b 2d 6e 3a 20 00 	mov    0x203a6e(%rip),%r13        # 208ff0 <free_chunks@@Base-0x9b8>
    5582:	89 ea                	mov    %ebp,%edx
    5584:	49 8b 5d 00          	mov    0x0(%r13),%rbx
    5588:	48 85 db             	test   %rbx,%rbx
    558b:	74 40                	je     55cd <nvm_reserve+0x13d>
    558d:	8b 43 20             	mov    0x20(%rbx),%eax
    5590:	39 e8                	cmp    %ebp,%eax
    5592:	74 54                	je     55e8 <nvm_reserve+0x158>
    5594:	31 ff                	xor    %edi,%edi
    5596:	eb 1a                	jmp    55b2 <nvm_reserve+0x122>
    5598:	0f 1f 84 00 00 00 00 	nopl   0x0(%rax,%rax,1)
    559f:	00 
    55a0:	48 89 df             	mov    %rbx,%rdi
    55a3:	48 89 f3             	mov    %rsi,%rbx
    55a6:	48 85 db             	test   %rbx,%rbx
    55a9:	74 1a                	je     55c5 <nvm_reserve+0x135>
    55ab:	8b 43 20             	mov    0x20(%rbx),%eax
    55ae:	39 c2                	cmp    %eax,%edx
    55b0:	74 36                	je     55e8 <nvm_reserve+0x158>
    55b2:	39 c2                	cmp    %eax,%edx
    55b4:	48 8b 33             	mov    (%rbx),%rsi
    55b7:	48 8b 4b 08          	mov    0x8(%rbx),%rcx
    55bb:	76 e3                	jbe    55a0 <nvm_reserve+0x110>
    55bd:	48 89 cb             	mov    %rcx,%rbx
    55c0:	48 85 db             	test   %rbx,%rbx
    55c3:	75 e6                	jne    55ab <nvm_reserve+0x11b>
    55c5:	48 85 ff             	test   %rdi,%rdi
    55c8:	48 89 fb             	mov    %rdi,%rbx
    55cb:	75 1b                	jne    55e8 <nvm_reserve+0x158>
    55cd:	4c 89 e7             	mov    %r12,%rdi
    55d0:	e8 7b cb ff ff       	callq  2150 <pthread_mutex_unlock@plt>
    55d5:	48 89 ef             	mov    %rbp,%rdi
    55d8:	e8 73 cc ff ff       	callq  2250 <nvm_reserve_huge@plt>
    55dd:	49 89 c6             	mov    %rax,%r14
    55e0:	eb 2e                	jmp    5610 <nvm_reserve+0x180>
    55e2:	66 0f 1f 44 00 00    	nopw   0x0(%rax,%rax,1)
    55e8:	4c 89 ee             	mov    %r13,%rsi
    55eb:	48 89 df             	mov    %rbx,%rdi
    55ee:	e8 dd c9 ff ff       	callq  1fd0 <tree_del@plt>
    55f3:	4c 89 e7             	mov    %r12,%rdi
    55f6:	e8 55 cb ff ff       	callq  2150 <pthread_mutex_unlock@plt>
    55fb:	44 8b 73 20          	mov    0x20(%rbx),%r14d
    55ff:	4c 39 f5             	cmp    %r14,%rbp
    5602:	72 1c                	jb     5620 <nvm_reserve+0x190>
    5604:	48 89 df             	mov    %rbx,%rdi
    5607:	4c 8b 73 18          	mov    0x18(%rbx),%r14
    560b:	e8 d0 c8 ff ff       	callq  1ee0 <free@plt>
    5610:	5b                   	pop    %rbx
    5611:	49 8d 46 40          	lea    0x40(%r14),%rax
    5615:	5d                   	pop    %rbp
    5616:	41 5c                	pop    %r12
    5618:	41 5d                	pop    %r13
    561a:	41 5e                	pop    %r14
    561c:	c3                   	retq   
    561d:	0f 1f 00             	nopl   (%rax)
    5620:	49 29 ee             	sub    %rbp,%r14
    5623:	31 c0                	xor    %eax,%eax
    5625:	49 c1 e6 1f          	shl    $0x1f,%r14
    5629:	4c 03 73 18          	add    0x18(%rbx),%r14
    562d:	41 89 6e 04          	mov    %ebp,0x4(%r14)
    5631:	41 c6 06 12          	movb   $0x12,(%r14)
    5635:	e8 e6 c9 ff ff       	callq  2020 <sfence@plt>
    563a:	4c 89 f7             	mov    %r14,%rdi
    563d:	e8 8e ca ff ff       	callq  20d0 <clwb@plt>
    5642:	48 8b 43 18          	mov    0x18(%rbx),%rax
    5646:	4c 89 e7             	mov    %r12,%rdi
    5649:	29 68 04             	sub    %ebp,0x4(%rax)
    564c:	29 6b 20             	sub    %ebp,0x20(%rbx)
    564f:	e8 4c cc ff ff       	callq  22a0 <pthread_mutex_lock@plt>
    5654:	48 8b 35 35 39 20 00 	mov    0x203935(%rip),%rsi        # 208f90 <chunk_node_compare@@Base+0x204b10>
    565b:	4c 89 ea             	mov    %r13,%rdx
    565e:	48 89 df             	mov    %rbx,%rdi
    5661:	e8 5a cc ff ff       	callq  22c0 <tree_add@plt>
    5666:	4c 89 e7             	mov    %r12,%rdi
    5669:	e8 e2 ca ff ff       	callq  2150 <pthread_mutex_unlock@plt>
    566e:	5b                   	pop    %rbx
    566f:	49 8d 46 40          	lea    0x40(%r14),%rax
    5673:	5d                   	pop    %rbp
    5674:	41 5c                	pop    %r12
    5676:	41 5d                	pop    %r13
    5678:	41 5e                	pop    %r14
    567a:	c3                   	retq   
    567b:	0f 1f 44 00 00       	nopl   0x0(%rax,%rax,1)
    5680:	48 89 2c 25 18 00 00 	mov    %rbp,0x18
    5687:	00 
    5688:	0f 0b                	ud2    
    568a:	66 0f 1f 44 00 00    	nopw   0x0(%rax,%rax,1)

0000000000005690 <nvm_reserve_id>:
    5690:	41 54                	push   %r12
    5692:	55                   	push   %rbp
    5693:	49 89 f4             	mov    %rsi,%r12
    5696:	53                   	push   %rbx
    5697:	48 89 fd             	mov    %rdi,%rbp
    569a:	31 db                	xor    %ebx,%ebx
    569c:	e8 0f cc ff ff       	callq  22b0 <ot_get@plt>
    56a1:	48 85 c0             	test   %rax,%rax
    56a4:	75 1b                	jne    56c1 <nvm_reserve_id+0x31>
    56a6:	4c 89 e7             	mov    %r12,%rdi
    56a9:	e8 a2 c9 ff ff       	callq  2050 <nvm_reserve@plt>
    56ae:	48 85 c0             	test   %rax,%rax
    56b1:	48 89 c3             	mov    %rax,%rbx
    56b4:	74 0b                	je     56c1 <nvm_reserve_id+0x31>
    56b6:	48 89 c6             	mov    %rax,%rsi
    56b9:	48 89 ef             	mov    %rbp,%rdi
    56bc:	e8 9f cb ff ff       	callq  2260 <ot_insert@plt>
    56c1:	48 89 d8             	mov    %rbx,%rax
    56c4:	5b                   	pop    %rbx
    56c5:	5d                   	pop    %rbp
    56c6:	41 5c                	pop    %r12
    56c8:	c3                   	retq   
    56c9:	0f 1f 80 00 00 00 00 	nopl   0x0(%rax)

00000000000056d0 <log_activate>:
    56d0:	48 8b 15 e1 38 20 00 	mov    0x2038e1(%rip),%rdx        # 208fb8 <next_log_entry@@Base-0xa00>
    56d7:	53                   	push   %rbx
    56d8:	b8 01 00 00 00       	mov    $0x1,%eax
    56dd:	f0 48 0f c1 02       	lock xadd %rax,(%rdx)
    56e2:	48 8b 35 9f 38 20 00 	mov    0x20389f(%rip),%rsi        # 208f88 <max_log_entries@@Base-0x2a8>
    56e9:	31 d2                	xor    %edx,%edx
    56eb:	48 89 f9             	mov    %rdi,%rcx
    56ee:	48 f7 36             	divq   (%rsi)
    56f1:	48 8b 05 b8 38 20 00 	mov    0x2038b8(%rip),%rax        # 208fb0 <log_start@@Base-0xa00>
    56f8:	48 8b 00             	mov    (%rax),%rax
    56fb:	48 8d 1c d0          	lea    (%rax,%rdx,8),%rbx
    56ff:	48 8b 05 7a 38 20 00 	mov    0x20387a(%rip),%rax        # 208f80 <nvm_start@@Base-0xa68>
    5706:	48 2b 08             	sub    (%rax),%rcx
    5709:	31 c0                	xor    %eax,%eax
    570b:	48 89 0b             	mov    %rcx,(%rbx)
    570e:	e8 0d c9 ff ff       	callq  2020 <sfence@plt>
    5713:	48 89 df             	mov    %rbx,%rdi
    5716:	5b                   	pop    %rbx
    5717:	e9 b4 c9 ff ff       	jmpq   20d0 <clwb@plt>
    571c:	0f 1f 40 00          	nopl   0x0(%rax)

0000000000005720 <nvm_activate>:
    5720:	41 57                	push   %r15
    5722:	41 56                	push   %r14
    5724:	49 89 d7             	mov    %rdx,%r15
    5727:	41 55                	push   %r13
    5729:	41 54                	push   %r12
    572b:	49 89 ce             	mov    %rcx,%r14
    572e:	55                   	push   %rbp
    572f:	53                   	push   %rbx
    5730:	48 89 fb             	mov    %rdi,%rbx
    5733:	48 89 fd             	mov    %rdi,%rbp
    5736:	49 89 f4             	mov    %rsi,%r12
    5739:	4d 89 c5             	mov    %r8,%r13
    573c:	48 83 ec 08          	sub    $0x8,%rsp
    5740:	48 8b 05 39 38 20 00 	mov    0x203839(%rip),%rax        # 208f80 <nvm_start@@Base-0xa68>
    5747:	48 2b 18             	sub    (%rax),%rbx
    574a:	e8 31 cb ff ff       	callq  2280 <log_activate@plt>
    574f:	81 e3 ff ff ff 7f    	and    $0x7fffffff,%ebx
    5755:	48 83 fb 40          	cmp    $0x40,%rbx
    5759:	0f 84 f1 01 00 00    	je     5950 <nvm_activate+0x230>
    575f:	48 89 eb             	mov    %rbp,%rbx
    5762:	48 81 e3 00 f0 ff ff 	and    $0xfffffffffffff000,%rbx
    5769:	0f b6 03             	movzbl (%rbx),%eax
    576c:	83 e0 f0             	and    $0xfffffff0,%eax
    576f:	3c 10                	cmp    $0x10,%al
    5771:	0f 84 09 01 00 00    	je     5880 <nvm_activate+0x160>
    5777:	48 8d 43 40          	lea    0x40(%rbx),%rax
    577b:	0f b7 4b 02          	movzwl 0x2(%rbx),%ecx
    577f:	31 d2                	xor    %edx,%edx
    5781:	48 29 c5             	sub    %rax,%rbp
    5784:	48 89 e8             	mov    %rbp,%rax
    5787:	48 f7 f1             	div    %rcx
    578a:	b9 42 00 00 00       	mov    $0x42,%ecx
    578f:	ba 46 00 00 00       	mov    $0x46,%edx
    5794:	48 89 c5             	mov    %rax,%rbp
    5797:	89 c8                	mov    %ecx,%eax
    5799:	f0 0f b0 13          	lock cmpxchg %dl,(%rbx)
    579d:	75 f8                	jne    5797 <nvm_activate+0x77>
    579f:	4d 85 e4             	test   %r12,%r12
    57a2:	66 89 6b 38          	mov    %bp,0x38(%rbx)
    57a6:	0f 84 96 00 00 00    	je     5842 <nvm_activate+0x122>
    57ac:	48 8b 05 cd 37 20 00 	mov    0x2037cd(%rip),%rax        # 208f80 <nvm_start@@Base-0xa68>
    57b3:	4c 89 e2             	mov    %r12,%rdx
    57b6:	48 8b 00             	mov    (%rax),%rax
    57b9:	48 29 c2             	sub    %rax,%rdx
    57bc:	4d 85 ff             	test   %r15,%r15
    57bf:	48 89 53 10          	mov    %rdx,0x10(%rbx)
    57c3:	0f 84 b7 02 00 00    	je     5a80 <nvm_activate+0x360>
    57c9:	4c 89 fa             	mov    %r15,%rdx
    57cc:	48 29 c2             	sub    %rax,%rdx
    57cf:	4d 85 f6             	test   %r14,%r14
    57d2:	48 89 53 18          	mov    %rdx,0x18(%rbx)
    57d6:	0f 84 84 02 00 00    	je     5a60 <nvm_activate+0x340>
    57dc:	4c 89 f2             	mov    %r14,%rdx
    57df:	48 29 c2             	sub    %rax,%rdx
    57e2:	4d 85 ed             	test   %r13,%r13
    57e5:	48 89 53 20          	mov    %rdx,0x20(%rbx)
    57e9:	0f 84 e1 02 00 00    	je     5ad0 <nvm_activate+0x3b0>
    57ef:	4c 89 ea             	mov    %r13,%rdx
    57f2:	c6 03 47             	movb   $0x47,(%rbx)
    57f5:	48 29 c2             	sub    %rax,%rdx
    57f8:	4d 85 ff             	test   %r15,%r15
    57fb:	48 89 53 28          	mov    %rdx,0x28(%rbx)
    57ff:	0f 84 ab 02 00 00    	je     5ab0 <nvm_activate+0x390>
    5805:	49 29 c7             	sub    %rax,%r15
    5808:	31 c0                	xor    %eax,%eax
    580a:	4d 89 3c 24          	mov    %r15,(%r12)
    580e:	e8 0d c8 ff ff       	callq  2020 <sfence@plt>
    5813:	49 8b 3c 24          	mov    (%r12),%rdi
    5817:	e8 b4 c8 ff ff       	callq  20d0 <clwb@plt>
    581c:	4d 85 f6             	test   %r14,%r14
    581f:	74 21                	je     5842 <nvm_activate+0x122>
    5821:	4d 85 ed             	test   %r13,%r13
    5824:	74 0a                	je     5830 <nvm_activate+0x110>
    5826:	48 8b 05 53 37 20 00 	mov    0x203753(%rip),%rax        # 208f80 <nvm_start@@Base-0xa68>
    582d:	4c 2b 28             	sub    (%rax),%r13
    5830:	4d 89 2e             	mov    %r13,(%r14)
    5833:	31 c0                	xor    %eax,%eax
    5835:	e8 e6 c7 ff ff       	callq  2020 <sfence@plt>
    583a:	49 8b 3e             	mov    (%r14),%rdi
    583d:	e8 8e c8 ff ff       	callq  20d0 <clwb@plt>
    5842:	89 ee                	mov    %ebp,%esi
    5844:	66 0f ef c0          	pxor   %xmm0,%xmm0
    5848:	66 c1 ee 03          	shr    $0x3,%si
    584c:	83 e5 07             	and    $0x7,%ebp
    584f:	bf 01 00 00 00       	mov    $0x1,%edi
    5854:	81 e6 ff 1f 00 00    	and    $0x1fff,%esi
    585a:	89 e9                	mov    %ebp,%ecx
    585c:	b8 ff ff ff ff       	mov    $0xffffffff,%eax
    5861:	d3 e7                	shl    %cl,%edi
    5863:	40 08 7c 33 30       	or     %dil,0x30(%rbx,%rsi,1)
    5868:	c6 03 42             	movb   $0x42,(%rbx)
    586b:	66 89 43 38          	mov    %ax,0x38(%rbx)
    586f:	0f 29 43 10          	movaps %xmm0,0x10(%rbx)
    5873:	0f 29 43 20          	movaps %xmm0,0x20(%rbx)
    5877:	e9 b2 00 00 00       	jmpq   592e <nvm_activate+0x20e>
    587c:	0f 1f 40 00          	nopl   0x0(%rax)
    5880:	4d 85 e4             	test   %r12,%r12
    5883:	0f 84 96 00 00 00    	je     591f <nvm_activate+0x1ff>
    5889:	48 8b 05 f0 36 20 00 	mov    0x2036f0(%rip),%rax        # 208f80 <nvm_start@@Base-0xa68>
    5890:	4c 89 e2             	mov    %r12,%rdx
    5893:	48 8b 00             	mov    (%rax),%rax
    5896:	48 29 c2             	sub    %rax,%rdx
    5899:	4d 85 ff             	test   %r15,%r15
    589c:	48 89 53 08          	mov    %rdx,0x8(%rbx)
    58a0:	0f 84 72 02 00 00    	je     5b18 <nvm_activate+0x3f8>
    58a6:	4c 89 fa             	mov    %r15,%rdx
    58a9:	48 29 c2             	sub    %rax,%rdx
    58ac:	4d 85 f6             	test   %r14,%r14
    58af:	48 89 53 10          	mov    %rdx,0x10(%rbx)
    58b3:	0f 84 af 02 00 00    	je     5b68 <nvm_activate+0x448>
    58b9:	4c 89 f2             	mov    %r14,%rdx
    58bc:	48 29 c2             	sub    %rax,%rdx
    58bf:	4d 85 ed             	test   %r13,%r13
    58c2:	48 89 53 18          	mov    %rdx,0x18(%rbx)
    58c6:	0f 84 2c 03 00 00    	je     5bf8 <nvm_activate+0x4d8>
    58cc:	4c 89 ea             	mov    %r13,%rdx
    58cf:	c6 03 37             	movb   $0x37,(%rbx)
    58d2:	48 29 c2             	sub    %rax,%rdx
    58d5:	4d 85 ff             	test   %r15,%r15
    58d8:	48 89 53 20          	mov    %rdx,0x20(%rbx)
    58dc:	0f 84 65 02 00 00    	je     5b47 <nvm_activate+0x427>
    58e2:	49 29 c7             	sub    %rax,%r15
    58e5:	31 c0                	xor    %eax,%eax
    58e7:	4d 89 3c 24          	mov    %r15,(%r12)
    58eb:	e8 30 c7 ff ff       	callq  2020 <sfence@plt>
    58f0:	49 8b 3c 24          	mov    (%r12),%rdi
    58f4:	e8 d7 c7 ff ff       	callq  20d0 <clwb@plt>
    58f9:	4d 85 f6             	test   %r14,%r14
    58fc:	74 21                	je     591f <nvm_activate+0x1ff>
    58fe:	4d 85 ed             	test   %r13,%r13
    5901:	74 0a                	je     590d <nvm_activate+0x1ed>
    5903:	48 8b 05 76 36 20 00 	mov    0x203676(%rip),%rax        # 208f80 <nvm_start@@Base-0xa68>
    590a:	4c 2b 28             	sub    (%rax),%r13
    590d:	4d 89 2e             	mov    %r13,(%r14)
    5910:	31 c0                	xor    %eax,%eax
    5912:	e8 09 c7 ff ff       	callq  2020 <sfence@plt>
    5917:	49 8b 3e             	mov    (%r14),%rdi
    591a:	e8 b1 c7 ff ff       	callq  20d0 <clwb@plt>
    591f:	66 0f ef c0          	pxor   %xmm0,%xmm0
    5923:	c6 03 32             	movb   $0x32,(%rbx)
    5926:	0f 11 43 08          	movups %xmm0,0x8(%rbx)
    592a:	0f 11 43 18          	movups %xmm0,0x18(%rbx)
    592e:	31 c0                	xor    %eax,%eax
    5930:	e8 eb c6 ff ff       	callq  2020 <sfence@plt>
    5935:	48 83 c4 08          	add    $0x8,%rsp
    5939:	48 89 df             	mov    %rbx,%rdi
    593c:	5b                   	pop    %rbx
    593d:	5d                   	pop    %rbp
    593e:	41 5c                	pop    %r12
    5940:	41 5d                	pop    %r13
    5942:	41 5e                	pop    %r14
    5944:	41 5f                	pop    %r15
    5946:	e9 85 c7 ff ff       	jmpq   20d0 <clwb@plt>
    594b:	0f 1f 44 00 00       	nopl   0x0(%rax,%rax,1)
    5950:	4d 85 e4             	test   %r12,%r12
    5953:	48 8d 5d c0          	lea    -0x40(%rbp),%rbx
    5957:	0f 84 97 00 00 00    	je     59f4 <nvm_activate+0x2d4>
    595d:	48 8b 05 1c 36 20 00 	mov    0x20361c(%rip),%rax        # 208f80 <nvm_start@@Base-0xa68>
    5964:	4c 89 e2             	mov    %r12,%rdx
    5967:	48 8b 00             	mov    (%rax),%rax
    596a:	48 29 c2             	sub    %rax,%rdx
    596d:	4d 85 ff             	test   %r15,%r15
    5970:	48 89 55 c8          	mov    %rdx,-0x38(%rbp)
    5974:	0f 84 96 00 00 00    	je     5a10 <nvm_activate+0x2f0>
    597a:	4c 89 fa             	mov    %r15,%rdx
    597d:	48 29 c2             	sub    %rax,%rdx
    5980:	4d 85 f6             	test   %r14,%r14
    5983:	48 89 55 d0          	mov    %rdx,-0x30(%rbp)
    5987:	0f 84 53 01 00 00    	je     5ae0 <nvm_activate+0x3c0>
    598d:	4c 89 f2             	mov    %r14,%rdx
    5990:	48 29 c2             	sub    %rax,%rdx
    5993:	4d 85 ed             	test   %r13,%r13
    5996:	48 89 55 d8          	mov    %rdx,-0x28(%rbp)
    599a:	0f 84 60 01 00 00    	je     5b00 <nvm_activate+0x3e0>
    59a0:	4c 89 ea             	mov    %r13,%rdx
    59a3:	c6 45 c0 57          	movb   $0x57,-0x40(%rbp)
    59a7:	48 29 c2             	sub    %rax,%rdx
    59aa:	4d 85 ff             	test   %r15,%r15
    59ad:	48 89 55 e0          	mov    %rdx,-0x20(%rbp)
    59b1:	0f 84 89 00 00 00    	je     5a40 <nvm_activate+0x320>
    59b7:	49 29 c7             	sub    %rax,%r15
    59ba:	31 c0                	xor    %eax,%eax
    59bc:	4d 89 3c 24          	mov    %r15,(%r12)
    59c0:	e8 5b c6 ff ff       	callq  2020 <sfence@plt>
    59c5:	49 8b 3c 24          	mov    (%r12),%rdi
    59c9:	e8 02 c7 ff ff       	callq  20d0 <clwb@plt>
    59ce:	4d 85 f6             	test   %r14,%r14
    59d1:	74 21                	je     59f4 <nvm_activate+0x2d4>
    59d3:	4d 85 ed             	test   %r13,%r13
    59d6:	74 0a                	je     59e2 <nvm_activate+0x2c2>
    59d8:	48 8b 05 a1 35 20 00 	mov    0x2035a1(%rip),%rax        # 208f80 <nvm_start@@Base-0xa68>
    59df:	4c 2b 28             	sub    (%rax),%r13
    59e2:	4d 89 2e             	mov    %r13,(%r14)
    59e5:	31 c0                	xor    %eax,%eax
    59e7:	e8 34 c6 ff ff       	callq  2020 <sfence@plt>
    59ec:	49 8b 3e             	mov    (%r14),%rdi
    59ef:	e8 dc c6 ff ff       	callq  20d0 <clwb@plt>
    59f4:	66 0f ef c0          	pxor   %xmm0,%xmm0
    59f8:	c6 45 c0 52          	movb   $0x52,-0x40(%rbp)
    59fc:	0f 11 45 c8          	movups %xmm0,-0x38(%rbp)
    5a00:	0f 11 43 18          	movups %xmm0,0x18(%rbx)
    5a04:	e9 25 ff ff ff       	jmpq   592e <nvm_activate+0x20e>
    5a09:	0f 1f 80 00 00 00 00 	nopl   0x0(%rax)
    5a10:	4d 85 f6             	test   %r14,%r14
    5a13:	48 c7 45 d0 00 00 00 	movq   $0x0,-0x30(%rbp)
    5a1a:	00 
    5a1b:	0f 84 8f 01 00 00    	je     5bb0 <nvm_activate+0x490>
    5a21:	4c 89 f2             	mov    %r14,%rdx
    5a24:	48 29 c2             	sub    %rax,%rdx
    5a27:	4d 85 ed             	test   %r13,%r13
    5a2a:	48 89 55 d8          	mov    %rdx,-0x28(%rbp)
    5a2e:	0f 85 6c ff ff ff    	jne    59a0 <nvm_activate+0x280>
    5a34:	48 c7 45 e0 00 00 00 	movq   $0x0,-0x20(%rbp)
    5a3b:	00 
    5a3c:	c6 45 c0 57          	movb   $0x57,-0x40(%rbp)
    5a40:	49 c7 04 24 00 00 00 	movq   $0x0,(%r12)
    5a47:	00 
    5a48:	31 c0                	xor    %eax,%eax
    5a4a:	e8 d1 c5 ff ff       	callq  2020 <sfence@plt>
    5a4f:	49 8b 3c 24          	mov    (%r12),%rdi
    5a53:	e8 78 c6 ff ff       	callq  20d0 <clwb@plt>
    5a58:	e9 76 ff ff ff       	jmpq   59d3 <nvm_activate+0x2b3>
    5a5d:	0f 1f 00             	nopl   (%rax)
    5a60:	c6 03 47             	movb   $0x47,(%rbx)
    5a63:	31 c0                	xor    %eax,%eax
    5a65:	49 89 14 24          	mov    %rdx,(%r12)
    5a69:	e8 b2 c5 ff ff       	callq  2020 <sfence@plt>
    5a6e:	49 8b 3c 24          	mov    (%r12),%rdi
    5a72:	e8 59 c6 ff ff       	callq  20d0 <clwb@plt>
    5a77:	e9 c6 fd ff ff       	jmpq   5842 <nvm_activate+0x122>
    5a7c:	0f 1f 40 00          	nopl   0x0(%rax)
    5a80:	4d 85 f6             	test   %r14,%r14
    5a83:	48 c7 43 18 00 00 00 	movq   $0x0,0x18(%rbx)
    5a8a:	00 
    5a8b:	0f 84 f7 00 00 00    	je     5b88 <nvm_activate+0x468>
    5a91:	4c 89 f2             	mov    %r14,%rdx
    5a94:	48 29 c2             	sub    %rax,%rdx
    5a97:	4d 85 ed             	test   %r13,%r13
    5a9a:	48 89 53 20          	mov    %rdx,0x20(%rbx)
    5a9e:	0f 85 4b fd ff ff    	jne    57ef <nvm_activate+0xcf>
    5aa4:	48 c7 43 28 00 00 00 	movq   $0x0,0x28(%rbx)
    5aab:	00 
    5aac:	c6 03 47             	movb   $0x47,(%rbx)
    5aaf:	90                   	nop
    5ab0:	49 c7 04 24 00 00 00 	movq   $0x0,(%r12)
    5ab7:	00 
    5ab8:	31 c0                	xor    %eax,%eax
    5aba:	e8 61 c5 ff ff       	callq  2020 <sfence@plt>
    5abf:	49 8b 3c 24          	mov    (%r12),%rdi
    5ac3:	e8 08 c6 ff ff       	callq  20d0 <clwb@plt>
    5ac8:	e9 54 fd ff ff       	jmpq   5821 <nvm_activate+0x101>
    5acd:	0f 1f 00             	nopl   (%rax)
    5ad0:	48 c7 43 28 00 00 00 	movq   $0x0,0x28(%rbx)
    5ad7:	00 
    5ad8:	c6 03 47             	movb   $0x47,(%rbx)
    5adb:	e9 25 fd ff ff       	jmpq   5805 <nvm_activate+0xe5>
    5ae0:	c6 45 c0 57          	movb   $0x57,-0x40(%rbp)
    5ae4:	31 c0                	xor    %eax,%eax
    5ae6:	49 89 14 24          	mov    %rdx,(%r12)
    5aea:	e8 31 c5 ff ff       	callq  2020 <sfence@plt>
    5aef:	49 8b 3c 24          	mov    (%r12),%rdi
    5af3:	e8 d8 c5 ff ff       	callq  20d0 <clwb@plt>
    5af8:	e9 f7 fe ff ff       	jmpq   59f4 <nvm_activate+0x2d4>
    5afd:	0f 1f 00             	nopl   (%rax)
    5b00:	48 c7 45 e0 00 00 00 	movq   $0x0,-0x20(%rbp)
    5b07:	00 
    5b08:	c6 45 c0 57          	movb   $0x57,-0x40(%rbp)
    5b0c:	e9 a6 fe ff ff       	jmpq   59b7 <nvm_activate+0x297>
    5b11:	0f 1f 80 00 00 00 00 	nopl   0x0(%rax)
    5b18:	4d 85 f6             	test   %r14,%r14
    5b1b:	48 c7 43 10 00 00 00 	movq   $0x0,0x10(%rbx)
    5b22:	00 
    5b23:	0f 84 af 00 00 00    	je     5bd8 <nvm_activate+0x4b8>
    5b29:	4c 89 f2             	mov    %r14,%rdx
    5b2c:	48 29 c2             	sub    %rax,%rdx
    5b2f:	4d 85 ed             	test   %r13,%r13
    5b32:	48 89 53 18          	mov    %rdx,0x18(%rbx)
    5b36:	0f 85 90 fd ff ff    	jne    58cc <nvm_activate+0x1ac>
    5b3c:	48 c7 43 20 00 00 00 	movq   $0x0,0x20(%rbx)
    5b43:	00 
    5b44:	c6 03 37             	movb   $0x37,(%rbx)
    5b47:	49 c7 04 24 00 00 00 	movq   $0x0,(%r12)
    5b4e:	00 
    5b4f:	31 c0                	xor    %eax,%eax
    5b51:	e8 ca c4 ff ff       	callq  2020 <sfence@plt>
    5b56:	49 8b 3c 24          	mov    (%r12),%rdi
    5b5a:	e8 71 c5 ff ff       	callq  20d0 <clwb@plt>
    5b5f:	e9 9a fd ff ff       	jmpq   58fe <nvm_activate+0x1de>
    5b64:	0f 1f 40 00          	nopl   0x0(%rax)
    5b68:	c6 03 37             	movb   $0x37,(%rbx)
    5b6b:	31 c0                	xor    %eax,%eax
    5b6d:	49 89 14 24          	mov    %rdx,(%r12)
    5b71:	e8 aa c4 ff ff       	callq  2020 <sfence@plt>
    5b76:	49 8b 3c 24          	mov    (%r12),%rdi
    5b7a:	e8 51 c5 ff ff       	callq  20d0 <clwb@plt>
    5b7f:	e9 9b fd ff ff       	jmpq   591f <nvm_activate+0x1ff>
    5b84:	0f 1f 40 00          	nopl   0x0(%rax)
    5b88:	c6 03 47             	movb   $0x47,(%rbx)
    5b8b:	31 c0                	xor    %eax,%eax
    5b8d:	49 c7 04 24 00 00 00 	movq   $0x0,(%r12)
    5b94:	00 
    5b95:	e8 86 c4 ff ff       	callq  2020 <sfence@plt>
    5b9a:	49 8b 3c 24          	mov    (%r12),%rdi
    5b9e:	e8 2d c5 ff ff       	callq  20d0 <clwb@plt>
    5ba3:	e9 9a fc ff ff       	jmpq   5842 <nvm_activate+0x122>
    5ba8:	0f 1f 84 00 00 00 00 	nopl   0x0(%rax,%rax,1)
    5baf:	00 
    5bb0:	c6 45 c0 57          	movb   $0x57,-0x40(%rbp)
    5bb4:	31 c0                	xor    %eax,%eax
    5bb6:	49 c7 04 24 00 00 00 	movq   $0x0,(%r12)
    5bbd:	00 
    5bbe:	e8 5d c4 ff ff       	callq  2020 <sfence@plt>
    5bc3:	49 8b 3c 24          	mov    (%r12),%rdi
    5bc7:	e8 04 c5 ff ff       	callq  20d0 <clwb@plt>
    5bcc:	e9 23 fe ff ff       	jmpq   59f4 <nvm_activate+0x2d4>
    5bd1:	0f 1f 80 00 00 00 00 	nopl   0x0(%rax)
    5bd8:	c6 03 37             	movb   $0x37,(%rbx)
    5bdb:	31 c0                	xor    %eax,%eax
    5bdd:	49 c7 04 24 00 00 00 	movq   $0x0,(%r12)
    5be4:	00 
    5be5:	e8 36 c4 ff ff       	callq  2020 <sfence@plt>
    5bea:	49 8b 3c 24          	mov    (%r12),%rdi
    5bee:	e8 dd c4 ff ff       	callq  20d0 <clwb@plt>
    5bf3:	e9 27 fd ff ff       	jmpq   591f <nvm_activate+0x1ff>
    5bf8:	48 c7 43 20 00 00 00 	movq   $0x0,0x20(%rbx)
    5bff:	00 
    5c00:	c6 03 37             	movb   $0x37,(%rbx)
    5c03:	e9 da fc ff ff       	jmpq   58e2 <nvm_activate+0x1c2>
    5c08:	0f 1f 84 00 00 00 00 	nopl   0x0(%rax,%rax,1)
    5c0f:	00 

0000000000005c10 <nvm_activate_id>:
    5c10:	41 54                	push   %r12
    5c12:	55                   	push   %rbp
    5c13:	49 89 fc             	mov    %rdi,%r12
    5c16:	53                   	push   %rbx
    5c17:	e8 94 c6 ff ff       	callq  22b0 <ot_get@plt>
    5c1c:	48 85 c0             	test   %rax,%rax
    5c1f:	74 6f                	je     5c90 <nvm_activate_id+0x80>
    5c21:	48 8b 58 48          	mov    0x48(%rax),%rbx
    5c25:	4c 89 e6             	mov    %r12,%rsi
    5c28:	ba 36 00 00 00       	mov    $0x36,%edx
    5c2d:	48 89 c5             	mov    %rax,%rbp
    5c30:	48 8d 7b 01          	lea    0x1(%rbx),%rdi
    5c34:	c6 03 00             	movb   $0x0,(%rbx)
    5c37:	e8 e4 c2 ff ff       	callq  1f20 <strncpy@plt>
    5c3c:	48 8b 15 3d 33 20 00 	mov    0x20333d(%rip),%rdx        # 208f80 <nvm_start@@Base-0xa68>
    5c43:	c6 43 37 00          	movb   $0x0,0x37(%rbx)
    5c47:	48 8b 45 40          	mov    0x40(%rbp),%rax
    5c4b:	48 2b 02             	sub    (%rdx),%rax
    5c4e:	c6 03 01             	movb   $0x1,(%rbx)
    5c51:	48 89 43 38          	mov    %rax,0x38(%rbx)
    5c55:	31 c0                	xor    %eax,%eax
    5c57:	e8 c4 c3 ff ff       	callq  2020 <sfence@plt>
    5c5c:	48 89 df             	mov    %rbx,%rdi
    5c5f:	e8 6c c4 ff ff       	callq  20d0 <clwb@plt>
    5c64:	48 8b 7d 40          	mov    0x40(%rbp),%rdi
    5c68:	45 31 c0             	xor    %r8d,%r8d
    5c6b:	31 c9                	xor    %ecx,%ecx
    5c6d:	31 d2                	xor    %edx,%edx
    5c6f:	31 f6                	xor    %esi,%esi
    5c71:	e8 7a c3 ff ff       	callq  1ff0 <nvm_activate@plt>
    5c76:	c6 03 02             	movb   $0x2,(%rbx)
    5c79:	31 c0                	xor    %eax,%eax
    5c7b:	e8 a0 c3 ff ff       	callq  2020 <sfence@plt>
    5c80:	48 89 df             	mov    %rbx,%rdi
    5c83:	5b                   	pop    %rbx
    5c84:	5d                   	pop    %rbp
    5c85:	41 5c                	pop    %r12
    5c87:	e9 44 c4 ff ff       	jmpq   20d0 <clwb@plt>
    5c8c:	0f 1f 40 00          	nopl   0x0(%rax)
    5c90:	5b                   	pop    %rbx
    5c91:	5d                   	pop    %rbp
    5c92:	41 5c                	pop    %r12
    5c94:	c3                   	retq   
    5c95:	90                   	nop
    5c96:	66 2e 0f 1f 84 00 00 	nopw   %cs:0x0(%rax,%rax,1)
    5c9d:	00 00 00 

0000000000005ca0 <nvm_teardown>:
    5ca0:	41 57                	push   %r15
    5ca2:	41 56                	push   %r14
    5ca4:	41 55                	push   %r13
    5ca6:	41 54                	push   %r12
    5ca8:	55                   	push   %rbp
    5ca9:	53                   	push   %rbx
    5caa:	48 83 ec 08          	sub    $0x8,%rsp
    5cae:	4c 8b 35 cb 32 20 00 	mov    0x2032cb(%rip),%r14        # 208f80 <nvm_start@@Base-0xa68>
    5cb5:	49 83 3e 00          	cmpq   $0x0,(%r14)
    5cb9:	0f 84 4c 01 00 00    	je     5e0b <nvm_teardown+0x16b>
    5cbf:	31 c0                	xor    %eax,%eax
    5cc1:	e8 ca c5 ff ff       	callq  2290 <teardown_nvm_space@plt>
    5cc6:	4c 8b 2d 23 33 20 00 	mov    0x203323(%rip),%r13        # 208ff0 <free_chunks@@Base-0x9b8>
    5ccd:	49 8b 7d 00          	mov    0x0(%r13),%rdi
    5cd1:	e8 8a c3 ff ff       	callq  2060 <tree_min@plt>
    5cd6:	48 89 c7             	mov    %rax,%rdi
    5cd9:	49 89 c4             	mov    %rax,%r12
    5cdc:	48 89 c5             	mov    %rax,%rbp
    5cdf:	e8 5c c2 ff ff       	callq  1f40 <tree_successor@plt>
    5ce4:	48 89 c3             	mov    %rax,%rbx
    5ce7:	eb 32                	jmp    5d1b <nvm_teardown+0x7b>
    5ce9:	0f 1f 80 00 00 00 00 	nopl   0x0(%rax)
    5cf0:	48 89 ef             	mov    %rbp,%rdi
    5cf3:	4c 89 ee             	mov    %r13,%rsi
    5cf6:	48 89 dd             	mov    %rbx,%rbp
    5cf9:	e8 d2 c2 ff ff       	callq  1fd0 <tree_del@plt>
    5cfe:	4c 89 e7             	mov    %r12,%rdi
    5d01:	e8 da c1 ff ff       	callq  1ee0 <free@plt>
    5d06:	31 c0                	xor    %eax,%eax
    5d08:	48 85 db             	test   %rbx,%rbx
    5d0b:	74 08                	je     5d15 <nvm_teardown+0x75>
    5d0d:	48 89 df             	mov    %rbx,%rdi
    5d10:	e8 2b c2 ff ff       	callq  1f40 <tree_successor@plt>
    5d15:	49 89 dc             	mov    %rbx,%r12
    5d18:	48 89 c3             	mov    %rax,%rbx
    5d1b:	48 85 ed             	test   %rbp,%rbp
    5d1e:	75 d0                	jne    5cf0 <nvm_teardown+0x50>
    5d20:	48 8b 2d a9 32 20 00 	mov    0x2032a9(%rip),%rbp        # 208fd0 <arenas@@Base-0x990>
    5d27:	31 db                	xor    %ebx,%ebx
    5d29:	48 8b 7d 00          	mov    0x0(%rbp),%rdi
    5d2d:	48 8b 3c 1f          	mov    (%rdi,%rbx,1),%rdi
    5d31:	e8 6a c3 ff ff       	callq  20a0 <arena_teardown@plt>
    5d36:	48 8b 7d 00          	mov    0x0(%rbp),%rdi
    5d3a:	48 c7 04 1f 00 00 00 	movq   $0x0,(%rdi,%rbx,1)
    5d41:	00 
    5d42:	48 83 c3 08          	add    $0x8,%rbx
    5d46:	48 83 fb 18          	cmp    $0x18,%rbx
    5d4a:	75 e1                	jne    5d2d <nvm_teardown+0x8d>
    5d4c:	e8 8f c1 ff ff       	callq  1ee0 <free@plt>
    5d51:	31 c0                	xor    %eax,%eax
    5d53:	e8 78 c5 ff ff       	callq  22d0 <ot_teardown@plt>
    5d58:	4c 8b 25 91 3c 20 00 	mov    0x203c91(%rip),%r12        # 2099f0 <tidmap>
    5d5f:	4d 85 e4             	test   %r12,%r12
    5d62:	74 6b                	je     5dcf <nvm_teardown+0x12f>
    5d64:	4d 8b 3c 24          	mov    (%r12),%r15
    5d68:	49 8b 44 24 08       	mov    0x8(%r12),%rax
    5d6d:	31 ed                	xor    %ebp,%ebp
    5d6f:	49 c7 44 24 10 00 00 	movq   $0x0,0x10(%r12)
    5d76:	00 00 
    5d78:	0f 1f 84 00 00 00 00 	nopl   0x0(%rax,%rax,1)
    5d7f:	00 
    5d80:	48 8b 3c e8          	mov    (%rax,%rbp,8),%rdi
    5d84:	4c 8d 2c ed 00 00 00 	lea    0x0(,%rbp,8),%r13
    5d8b:	00 
    5d8c:	48 85 ff             	test   %rdi,%rdi
    5d8f:	74 25                	je     5db6 <nvm_teardown+0x116>
    5d91:	0f 1f 80 00 00 00 00 	nopl   0x0(%rax)
    5d98:	48 8b 5f 08          	mov    0x8(%rdi),%rbx
    5d9c:	e8 3f c1 ff ff       	callq  1ee0 <free@plt>
    5da1:	48 85 db             	test   %rbx,%rbx
    5da4:	48 89 df             	mov    %rbx,%rdi
    5da7:	75 ef                	jne    5d98 <nvm_teardown+0xf8>
    5da9:	49 8b 44 24 08       	mov    0x8(%r12),%rax
    5dae:	4a c7 04 28 00 00 00 	movq   $0x0,(%rax,%r13,1)
    5db5:	00 
    5db6:	48 83 c5 01          	add    $0x1,%rbp
    5dba:	49 39 ef             	cmp    %rbp,%r15
    5dbd:	73 c1                	jae    5d80 <nvm_teardown+0xe0>
    5dbf:	48 89 c7             	mov    %rax,%rdi
    5dc2:	e8 19 c1 ff ff       	callq  1ee0 <free@plt>
    5dc7:	4c 89 e7             	mov    %r12,%rdi
    5dca:	e8 11 c1 ff ff       	callq  1ee0 <free@plt>
    5dcf:	48 8b 05 02 32 20 00 	mov    0x203202(%rip),%rax        # 208fd8 <current_version@@Base-0x9e8>
    5dd6:	48 c7 05 0f 3c 20 00 	movq   $0x0,0x203c0f(%rip)        # 2099f0 <tidmap>
    5ddd:	00 00 00 00 
    5de1:	49 c7 06 00 00 00 00 	movq   $0x0,(%r14)
    5de8:	48 c7 00 00 00 00 00 	movq   $0x0,(%rax)
    5def:	48 8b 05 c2 31 20 00 	mov    0x2031c2(%rip),%rax        # 208fb8 <next_log_entry@@Base-0xa00>
    5df6:	48 c7 00 00 00 00 00 	movq   $0x0,(%rax)
    5dfd:	48 8b 05 ac 31 20 00 	mov    0x2031ac(%rip),%rax        # 208fb0 <log_start@@Base-0xa00>
    5e04:	48 c7 00 00 00 00 00 	movq   $0x0,(%rax)
    5e0b:	48 83 c4 08          	add    $0x8,%rsp
    5e0f:	5b                   	pop    %rbx
    5e10:	5d                   	pop    %rbp
    5e11:	41 5c                	pop    %r12
    5e13:	41 5d                	pop    %r13
    5e15:	41 5e                	pop    %r14
    5e17:	41 5f                	pop    %r15
    5e19:	c3                   	retq   
    5e1a:	66 0f 1f 44 00 00    	nopw   0x0(%rax,%rax,1)

0000000000005e20 <tree_search>:
    5e20:	48 85 d2             	test   %rdx,%rdx
    5e23:	74 4b                	je     5e70 <tree_search+0x50>
    5e25:	41 54                	push   %r12
    5e27:	49 89 fc             	mov    %rdi,%r12
    5e2a:	55                   	push   %rbp
    5e2b:	48 89 f5             	mov    %rsi,%rbp
    5e2e:	53                   	push   %rbx
    5e2f:	48 89 d3             	mov    %rdx,%rbx
    5e32:	eb 14                	jmp    5e48 <tree_search+0x28>
    5e34:	0f 1f 40 00          	nopl   0x0(%rax)
    5e38:	48 8b 03             	mov    (%rbx),%rax
    5e3b:	48 0f 49 43 08       	cmovns 0x8(%rbx),%rax
    5e40:	48 85 c0             	test   %rax,%rax
    5e43:	48 89 c3             	mov    %rax,%rbx
    5e46:	74 18                	je     5e60 <tree_search+0x40>
    5e48:	48 89 de             	mov    %rbx,%rsi
    5e4b:	4c 89 e7             	mov    %r12,%rdi
    5e4e:	ff d5                	callq  *%rbp
    5e50:	85 c0                	test   %eax,%eax
    5e52:	75 e4                	jne    5e38 <tree_search+0x18>
    5e54:	48 89 d8             	mov    %rbx,%rax
    5e57:	5b                   	pop    %rbx
    5e58:	5d                   	pop    %rbp
    5e59:	41 5c                	pop    %r12
    5e5b:	c3                   	retq   
    5e5c:	0f 1f 40 00          	nopl   0x0(%rax)
    5e60:	5b                   	pop    %rbx
    5e61:	31 c0                	xor    %eax,%eax
    5e63:	5d                   	pop    %rbp
    5e64:	41 5c                	pop    %r12
    5e66:	c3                   	retq   
    5e67:	66 0f 1f 84 00 00 00 	nopw   0x0(%rax,%rax,1)
    5e6e:	00 00 
    5e70:	31 c0                	xor    %eax,%eax
    5e72:	c3                   	retq   
    5e73:	0f 1f 00             	nopl   (%rax)
    5e76:	66 2e 0f 1f 84 00 00 	nopw   %cs:0x0(%rax,%rax,1)
    5e7d:	00 00 00 

0000000000005e80 <tree_min>:
    5e80:	48 85 ff             	test   %rdi,%rdi
    5e83:	48 89 f8             	mov    %rdi,%rax
    5e86:	75 0b                	jne    5e93 <tree_min+0x13>
    5e88:	eb 16                	jmp    5ea0 <tree_min+0x20>
    5e8a:	66 0f 1f 44 00 00    	nopw   0x0(%rax,%rax,1)
    5e90:	48 89 d0             	mov    %rdx,%rax
    5e93:	48 8b 10             	mov    (%rax),%rdx
    5e96:	48 85 d2             	test   %rdx,%rdx
    5e99:	75 f5                	jne    5e90 <tree_min+0x10>
    5e9b:	f3 c3                	repz retq 
    5e9d:	0f 1f 00             	nopl   (%rax)
    5ea0:	f3 c3                	repz retq 
    5ea2:	0f 1f 40 00          	nopl   0x0(%rax)
    5ea6:	66 2e 0f 1f 84 00 00 	nopw   %cs:0x0(%rax,%rax,1)
    5ead:	00 00 00 

0000000000005eb0 <tree_max>:
    5eb0:	48 85 ff             	test   %rdi,%rdi
    5eb3:	48 89 f8             	mov    %rdi,%rax
    5eb6:	75 0b                	jne    5ec3 <tree_max+0x13>
    5eb8:	eb 16                	jmp    5ed0 <tree_max+0x20>
    5eba:	66 0f 1f 44 00 00    	nopw   0x0(%rax,%rax,1)
    5ec0:	48 89 d0             	mov    %rdx,%rax
    5ec3:	48 8b 50 08          	mov    0x8(%rax),%rdx
    5ec7:	48 85 d2             	test   %rdx,%rdx
    5eca:	75 f4                	jne    5ec0 <tree_max+0x10>
    5ecc:	f3 c3                	repz retq 
    5ece:	66 90                	xchg   %ax,%ax
    5ed0:	f3 c3                	repz retq 
    5ed2:	0f 1f 40 00          	nopl   0x0(%rax)
    5ed6:	66 2e 0f 1f 84 00 00 	nopw   %cs:0x0(%rax,%rax,1)
    5edd:	00 00 00 

0000000000005ee0 <tree_successor>:
    5ee0:	48 85 ff             	test   %rdi,%rdi
    5ee3:	74 43                	je     5f28 <tree_successor+0x48>
    5ee5:	48 8b 47 08          	mov    0x8(%rdi),%rax
    5ee9:	48 85 c0             	test   %rax,%rax
    5eec:	75 2a                	jne    5f18 <tree_successor+0x38>
    5eee:	48 8b 57 10          	mov    0x10(%rdi),%rdx
    5ef2:	48 85 d2             	test   %rdx,%rdx
    5ef5:	74 31                	je     5f28 <tree_successor+0x48>
    5ef7:	48 3b 7a 08          	cmp    0x8(%rdx),%rdi
    5efb:	74 0c                	je     5f09 <tree_successor+0x29>
    5efd:	eb 31                	jmp    5f30 <tree_successor+0x50>
    5eff:	90                   	nop
    5f00:	48 39 50 08          	cmp    %rdx,0x8(%rax)
    5f04:	75 1a                	jne    5f20 <tree_successor+0x40>
    5f06:	48 89 c2             	mov    %rax,%rdx
    5f09:	48 8b 42 10          	mov    0x10(%rdx),%rax
    5f0d:	48 85 c0             	test   %rax,%rax
    5f10:	75 ee                	jne    5f00 <tree_successor+0x20>
    5f12:	f3 c3                	repz retq 
    5f14:	0f 1f 40 00          	nopl   0x0(%rax)
    5f18:	48 89 c7             	mov    %rax,%rdi
    5f1b:	e9 40 c1 ff ff       	jmpq   2060 <tree_min@plt>
    5f20:	f3 c3                	repz retq 
    5f22:	66 0f 1f 44 00 00    	nopw   0x0(%rax,%rax,1)
    5f28:	31 c0                	xor    %eax,%eax
    5f2a:	c3                   	retq   
    5f2b:	0f 1f 44 00 00       	nopl   0x0(%rax,%rax,1)
    5f30:	48 89 d0             	mov    %rdx,%rax
    5f33:	c3                   	retq   
    5f34:	66 90                	xchg   %ax,%ax
    5f36:	66 2e 0f 1f 84 00 00 	nopw   %cs:0x0(%rax,%rax,1)
    5f3d:	00 00 00 

0000000000005f40 <tree_predecessor>:
    5f40:	48 85 ff             	test   %rdi,%rdi
    5f43:	74 43                	je     5f88 <tree_predecessor+0x48>
    5f45:	48 8b 07             	mov    (%rdi),%rax
    5f48:	48 85 c0             	test   %rax,%rax
    5f4b:	75 2b                	jne    5f78 <tree_predecessor+0x38>
    5f4d:	48 8b 57 10          	mov    0x10(%rdi),%rdx
    5f51:	48 85 d2             	test   %rdx,%rdx
    5f54:	74 32                	je     5f88 <tree_predecessor+0x48>
    5f56:	48 3b 3a             	cmp    (%rdx),%rdi
    5f59:	74 0d                	je     5f68 <tree_predecessor+0x28>
    5f5b:	eb 33                	jmp    5f90 <tree_predecessor+0x50>
    5f5d:	0f 1f 00             	nopl   (%rax)
    5f60:	48 39 10             	cmp    %rdx,(%rax)
    5f63:	75 1b                	jne    5f80 <tree_predecessor+0x40>
    5f65:	48 89 c2             	mov    %rax,%rdx
    5f68:	48 8b 42 10          	mov    0x10(%rdx),%rax
    5f6c:	48 85 c0             	test   %rax,%rax
    5f6f:	75 ef                	jne    5f60 <tree_predecessor+0x20>
    5f71:	f3 c3                	repz retq 
    5f73:	0f 1f 44 00 00       	nopl   0x0(%rax,%rax,1)
    5f78:	48 89 c7             	mov    %rax,%rdi
    5f7b:	e9 b0 c0 ff ff       	jmpq   2030 <tree_max@plt>
    5f80:	f3 c3                	repz retq 
    5f82:	66 0f 1f 44 00 00    	nopw   0x0(%rax,%rax,1)
    5f88:	31 c0                	xor    %eax,%eax
    5f8a:	c3                   	retq   
    5f8b:	0f 1f 44 00 00       	nopl   0x0(%rax,%rax,1)
    5f90:	48 89 d0             	mov    %rdx,%rax
    5f93:	c3                   	retq   
    5f94:	66 90                	xchg   %ax,%ax
    5f96:	66 2e 0f 1f 84 00 00 	nopw   %cs:0x0(%rax,%rax,1)
    5f9d:	00 00 00 

0000000000005fa0 <tree_add>:
    5fa0:	41 54                	push   %r12
    5fa2:	55                   	push   %rbp
    5fa3:	49 89 f4             	mov    %rsi,%r12
    5fa6:	53                   	push   %rbx
    5fa7:	48 8b 1a             	mov    (%rdx),%rbx
    5faa:	48 89 fd             	mov    %rdi,%rbp
    5fad:	48 c7 07 00 00 00 00 	movq   $0x0,(%rdi)
    5fb4:	48 c7 47 08 00 00 00 	movq   $0x0,0x8(%rdi)
    5fbb:	00 
    5fbc:	48 c7 47 10 00 00 00 	movq   $0x0,0x10(%rdi)
    5fc3:	00 
    5fc4:	48 85 db             	test   %rbx,%rbx
    5fc7:	75 0a                	jne    5fd3 <tree_add+0x33>
    5fc9:	eb 35                	jmp    6000 <tree_add+0x60>
    5fcb:	0f 1f 44 00 00       	nopl   0x0(%rax,%rax,1)
    5fd0:	48 89 d3             	mov    %rdx,%rbx
    5fd3:	48 89 de             	mov    %rbx,%rsi
    5fd6:	48 89 ef             	mov    %rbp,%rdi
    5fd9:	41 ff d4             	callq  *%r12
    5fdc:	48 8b 53 08          	mov    0x8(%rbx),%rdx
    5fe0:	85 c0                	test   %eax,%eax
    5fe2:	48 0f 48 13          	cmovs  (%rbx),%rdx
    5fe6:	48 85 d2             	test   %rdx,%rdx
    5fe9:	75 e5                	jne    5fd0 <tree_add+0x30>
    5feb:	85 c0                	test   %eax,%eax
    5fed:	48 89 5d 10          	mov    %rbx,0x10(%rbp)
    5ff1:	78 1d                	js     6010 <tree_add+0x70>
    5ff3:	48 89 6b 08          	mov    %rbp,0x8(%rbx)
    5ff7:	5b                   	pop    %rbx
    5ff8:	5d                   	pop    %rbp
    5ff9:	41 5c                	pop    %r12
    5ffb:	c3                   	retq   
    5ffc:	0f 1f 40 00          	nopl   0x0(%rax)
    6000:	48 89 3a             	mov    %rdi,(%rdx)
    6003:	5b                   	pop    %rbx
    6004:	5d                   	pop    %rbp
    6005:	41 5c                	pop    %r12
    6007:	c3                   	retq   
    6008:	0f 1f 84 00 00 00 00 	nopl   0x0(%rax,%rax,1)
    600f:	00 
    6010:	48 89 2b             	mov    %rbp,(%rbx)
    6013:	5b                   	pop    %rbx
    6014:	5d                   	pop    %rbp
    6015:	41 5c                	pop    %r12
    6017:	c3                   	retq   
    6018:	0f 1f 84 00 00 00 00 	nopl   0x0(%rax,%rax,1)
    601f:	00 

0000000000006020 <tree_map>:
    6020:	41 54                	push   %r12
    6022:	55                   	push   %rbp
    6023:	49 89 f4             	mov    %rsi,%r12
    6026:	53                   	push   %rbx
    6027:	48 8b 1a             	mov    (%rdx),%rbx
    602a:	48 89 fd             	mov    %rdi,%rbp
    602d:	48 c7 07 00 00 00 00 	movq   $0x0,(%rdi)
    6034:	48 c7 47 08 00 00 00 	movq   $0x0,0x8(%rdi)
    603b:	00 
    603c:	48 c7 47 10 00 00 00 	movq   $0x0,0x10(%rdi)
    6043:	00 
    6044:	48 85 db             	test   %rbx,%rbx
    6047:	75 17                	jne    6060 <tree_map+0x40>
    6049:	eb 45                	jmp    6090 <tree_map+0x70>
    604b:	0f 1f 44 00 00       	nopl   0x0(%rax,%rax,1)
    6050:	48 8b 53 08          	mov    0x8(%rbx),%rdx
    6054:	48 0f 48 13          	cmovs  (%rbx),%rdx
    6058:	48 85 d2             	test   %rdx,%rdx
    605b:	74 1b                	je     6078 <tree_map+0x58>
    605d:	48 89 d3             	mov    %rdx,%rbx
    6060:	48 89 de             	mov    %rbx,%rsi
    6063:	48 89 ef             	mov    %rbp,%rdi
    6066:	41 ff d4             	callq  *%r12
    6069:	85 c0                	test   %eax,%eax
    606b:	75 e3                	jne    6050 <tree_map+0x30>
    606d:	48 89 d8             	mov    %rbx,%rax
    6070:	5b                   	pop    %rbx
    6071:	5d                   	pop    %rbp
    6072:	41 5c                	pop    %r12
    6074:	c3                   	retq   
    6075:	0f 1f 00             	nopl   (%rax)
    6078:	85 c0                	test   %eax,%eax
    607a:	48 89 5d 10          	mov    %rbx,0x10(%rbp)
    607e:	78 20                	js     60a0 <tree_map+0x80>
    6080:	48 89 6b 08          	mov    %rbp,0x8(%rbx)
    6084:	48 89 eb             	mov    %rbp,%rbx
    6087:	48 89 d8             	mov    %rbx,%rax
    608a:	5b                   	pop    %rbx
    608b:	5d                   	pop    %rbp
    608c:	41 5c                	pop    %r12
    608e:	c3                   	retq   
    608f:	90                   	nop
    6090:	48 89 fb             	mov    %rdi,%rbx
    6093:	48 89 3a             	mov    %rdi,(%rdx)
    6096:	48 89 d8             	mov    %rbx,%rax
    6099:	5b                   	pop    %rbx
    609a:	5d                   	pop    %rbp
    609b:	41 5c                	pop    %r12
    609d:	c3                   	retq   
    609e:	66 90                	xchg   %ax,%ax
    60a0:	48 89 2b             	mov    %rbp,(%rbx)
    60a3:	48 89 eb             	mov    %rbp,%rbx
    60a6:	48 89 d8             	mov    %rbx,%rax
    60a9:	5b                   	pop    %rbx
    60aa:	5d                   	pop    %rbp
    60ab:	41 5c                	pop    %r12
    60ad:	c3                   	retq   
    60ae:	66 90                	xchg   %ax,%ax

00000000000060b0 <tree_del>:
    60b0:	53                   	push   %rbx
    60b1:	48 89 fb             	mov    %rdi,%rbx
    60b4:	48 83 ec 10          	sub    $0x10,%rsp
    60b8:	48 8b 17             	mov    (%rdi),%rdx
    60bb:	48 8b 47 08          	mov    0x8(%rdi),%rax
    60bf:	48 85 d2             	test   %rdx,%rdx
    60c2:	0f 84 98 00 00 00    	je     6160 <tree_del+0xb0>
    60c8:	48 85 c0             	test   %rax,%rax
    60cb:	0f 84 87 00 00 00    	je     6158 <tree_del+0xa8>
    60d1:	48 89 74 24 08       	mov    %rsi,0x8(%rsp)
    60d6:	e8 65 be ff ff       	callq  1f40 <tree_successor@plt>
    60db:	48 8b 10             	mov    (%rax),%rdx
    60de:	48 8b 74 24 08       	mov    0x8(%rsp),%rsi
    60e3:	48 85 d2             	test   %rdx,%rdx
    60e6:	0f 84 b5 00 00 00    	je     61a1 <tree_del+0xf1>
    60ec:	48 8b 48 10          	mov    0x10(%rax),%rcx
    60f0:	48 89 4a 10          	mov    %rcx,0x10(%rdx)
    60f4:	48 8b 48 10          	mov    0x10(%rax),%rcx
    60f8:	48 85 c9             	test   %rcx,%rcx
    60fb:	74 77                	je     6174 <tree_del+0xc4>
    60fd:	48 39 01             	cmp    %rax,(%rcx)
    6100:	74 7e                	je     6180 <tree_del+0xd0>
    6102:	48 89 51 08          	mov    %rdx,0x8(%rcx)
    6106:	48 39 c3             	cmp    %rax,%rbx
    6109:	74 41                	je     614c <tree_del+0x9c>
    610b:	48 8b 13             	mov    (%rbx),%rdx
    610e:	48 89 10             	mov    %rdx,(%rax)
    6111:	48 8b 13             	mov    (%rbx),%rdx
    6114:	48 85 d2             	test   %rdx,%rdx
    6117:	74 04                	je     611d <tree_del+0x6d>
    6119:	48 89 42 10          	mov    %rax,0x10(%rdx)
    611d:	48 8b 53 08          	mov    0x8(%rbx),%rdx
    6121:	48 89 50 08          	mov    %rdx,0x8(%rax)
    6125:	48 8b 53 08          	mov    0x8(%rbx),%rdx
    6129:	48 85 d2             	test   %rdx,%rdx
    612c:	74 04                	je     6132 <tree_del+0x82>
    612e:	48 89 42 10          	mov    %rax,0x10(%rdx)
    6132:	48 8b 53 10          	mov    0x10(%rbx),%rdx
    6136:	48 89 50 10          	mov    %rdx,0x10(%rax)
    613a:	48 8b 53 10          	mov    0x10(%rbx),%rdx
    613e:	48 85 d2             	test   %rdx,%rdx
    6141:	74 45                	je     6188 <tree_del+0xd8>
    6143:	48 39 1a             	cmp    %rbx,(%rdx)
    6146:	74 50                	je     6198 <tree_del+0xe8>
    6148:	48 89 42 08          	mov    %rax,0x8(%rdx)
    614c:	48 83 c4 10          	add    $0x10,%rsp
    6150:	5b                   	pop    %rbx
    6151:	c3                   	retq   
    6152:	66 0f 1f 44 00 00    	nopw   0x0(%rax,%rax,1)
    6158:	48 89 f8             	mov    %rdi,%rax
    615b:	eb 8f                	jmp    60ec <tree_del+0x3c>
    615d:	0f 1f 00             	nopl   (%rax)
    6160:	48 89 c2             	mov    %rax,%rdx
    6163:	48 89 f8             	mov    %rdi,%rax
    6166:	48 85 d2             	test   %rdx,%rdx
    6169:	75 81                	jne    60ec <tree_del+0x3c>
    616b:	48 8b 48 10          	mov    0x10(%rax),%rcx
    616f:	48 85 c9             	test   %rcx,%rcx
    6172:	75 89                	jne    60fd <tree_del+0x4d>
    6174:	48 89 16             	mov    %rdx,(%rsi)
    6177:	eb 8d                	jmp    6106 <tree_del+0x56>
    6179:	0f 1f 80 00 00 00 00 	nopl   0x0(%rax)
    6180:	48 89 11             	mov    %rdx,(%rcx)
    6183:	eb 81                	jmp    6106 <tree_del+0x56>
    6185:	0f 1f 00             	nopl   (%rax)
    6188:	48 89 06             	mov    %rax,(%rsi)
    618b:	48 83 c4 10          	add    $0x10,%rsp
    618f:	5b                   	pop    %rbx
    6190:	c3                   	retq   
    6191:	0f 1f 80 00 00 00 00 	nopl   0x0(%rax)
    6198:	48 89 02             	mov    %rax,(%rdx)
    619b:	48 83 c4 10          	add    $0x10,%rsp
    619f:	5b                   	pop    %rbx
    61a0:	c3                   	retq   
    61a1:	48 8b 50 08          	mov    0x8(%rax),%rdx
    61a5:	eb bf                	jmp    6166 <tree_del+0xb6>
    61a7:	66 0f 1f 84 00 00 00 	nopw   0x0(%rax,%rax,1)
    61ae:	00 00 

00000000000061b0 <splay_search>:
    61b0:	41 57                	push   %r15
    61b2:	41 56                	push   %r14
    61b4:	41 55                	push   %r13
    61b6:	41 54                	push   %r12
    61b8:	49 89 fc             	mov    %rdi,%r12
    61bb:	55                   	push   %rbp
    61bc:	53                   	push   %rbx
    61bd:	48 89 f5             	mov    %rsi,%rbp
    61c0:	48 83 ec 38          	sub    $0x38,%rsp
    61c4:	48 8b 1a             	mov    (%rdx),%rbx
    61c7:	4c 8d 6c 24 10       	lea    0x10(%rsp),%r13
    61cc:	48 89 54 24 08       	mov    %rdx,0x8(%rsp)
    61d1:	48 c7 44 24 10 00 00 	movq   $0x0,0x10(%rsp)
    61d8:	00 00 
    61da:	48 c7 44 24 18 00 00 	movq   $0x0,0x18(%rsp)
    61e1:	00 00 
    61e3:	48 c7 44 24 20 00 00 	movq   $0x0,0x20(%rsp)
    61ea:	00 00 
    61ec:	4c 89 2c 24          	mov    %r13,(%rsp)
    61f0:	48 89 de             	mov    %rbx,%rsi
    61f3:	4c 89 e7             	mov    %r12,%rdi
    61f6:	ff d5                	callq  *%rbp
    61f8:	85 c0                	test   %eax,%eax
    61fa:	41 89 c6             	mov    %eax,%r14d
    61fd:	74 67                	je     6266 <splay_search+0xb6>
    61ff:	0f 88 db 00 00 00    	js     62e0 <splay_search+0x130>
    6205:	4c 8b 7b 08          	mov    0x8(%rbx),%r15
    6209:	4d 85 ff             	test   %r15,%r15
    620c:	74 58                	je     6266 <splay_search+0xb6>
    620e:	4c 89 fe             	mov    %r15,%rsi
    6211:	4c 89 e7             	mov    %r12,%rdi
    6214:	ff d5                	callq  *%rbp
    6216:	85 c0                	test   %eax,%eax
    6218:	0f 8e f2 00 00 00    	jle    6310 <splay_search+0x160>
    621e:	49 8b 07             	mov    (%r15),%rax
    6221:	48 85 c0             	test   %rax,%rax
    6224:	48 89 43 08          	mov    %rax,0x8(%rbx)
    6228:	74 04                	je     622e <splay_search+0x7e>
    622a:	48 89 58 10          	mov    %rbx,0x10(%rax)
    622e:	49 83 7f 08 00       	cmpq   $0x0,0x8(%r15)
    6233:	48 8b 43 10          	mov    0x10(%rbx),%rax
    6237:	49 89 1f             	mov    %rbx,(%r15)
    623a:	49 89 47 10          	mov    %rax,0x10(%r15)
    623e:	4c 89 7b 10          	mov    %r15,0x10(%rbx)
    6242:	0f 84 18 01 00 00    	je     6360 <splay_search+0x1b0>
    6248:	4d 89 7d 08          	mov    %r15,0x8(%r13)
    624c:	49 8b 5f 08          	mov    0x8(%r15),%rbx
    6250:	4c 89 e7             	mov    %r12,%rdi
    6253:	4d 89 6f 10          	mov    %r13,0x10(%r15)
    6257:	4d 89 fd             	mov    %r15,%r13
    625a:	48 89 de             	mov    %rbx,%rsi
    625d:	ff d5                	callq  *%rbp
    625f:	85 c0                	test   %eax,%eax
    6261:	41 89 c6             	mov    %eax,%r14d
    6264:	75 99                	jne    61ff <splay_search+0x4f>
    6266:	48 8b 03             	mov    (%rbx),%rax
    6269:	48 c7 43 10 00 00 00 	movq   $0x0,0x10(%rbx)
    6270:	00 
    6271:	48 85 c0             	test   %rax,%rax
    6274:	49 89 45 08          	mov    %rax,0x8(%r13)
    6278:	74 04                	je     627e <splay_search+0xce>
    627a:	4c 89 68 10          	mov    %r13,0x10(%rax)
    627e:	48 8b 43 08          	mov    0x8(%rbx),%rax
    6282:	48 8b 0c 24          	mov    (%rsp),%rcx
    6286:	48 85 c0             	test   %rax,%rax
    6289:	48 89 01             	mov    %rax,(%rcx)
    628c:	74 04                	je     6292 <splay_search+0xe2>
    628e:	48 89 48 10          	mov    %rcx,0x10(%rax)
    6292:	48 8b 44 24 18       	mov    0x18(%rsp),%rax
    6297:	48 85 c0             	test   %rax,%rax
    629a:	48 89 03             	mov    %rax,(%rbx)
    629d:	74 04                	je     62a3 <splay_search+0xf3>
    629f:	48 89 58 10          	mov    %rbx,0x10(%rax)
    62a3:	48 8b 44 24 10       	mov    0x10(%rsp),%rax
    62a8:	48 85 c0             	test   %rax,%rax
    62ab:	48 89 43 08          	mov    %rax,0x8(%rbx)
    62af:	74 04                	je     62b5 <splay_search+0x105>
    62b1:	48 89 58 10          	mov    %rbx,0x10(%rax)
    62b5:	48 8b 44 24 08       	mov    0x8(%rsp),%rax
    62ba:	45 85 f6             	test   %r14d,%r14d
    62bd:	48 89 18             	mov    %rbx,(%rax)
    62c0:	b8 00 00 00 00       	mov    $0x0,%eax
    62c5:	48 0f 45 d8          	cmovne %rax,%rbx
    62c9:	48 83 c4 38          	add    $0x38,%rsp
    62cd:	48 89 d8             	mov    %rbx,%rax
    62d0:	5b                   	pop    %rbx
    62d1:	5d                   	pop    %rbp
    62d2:	41 5c                	pop    %r12
    62d4:	41 5d                	pop    %r13
    62d6:	41 5e                	pop    %r14
    62d8:	41 5f                	pop    %r15
    62da:	c3                   	retq   
    62db:	0f 1f 44 00 00       	nopl   0x0(%rax,%rax,1)
    62e0:	4c 8b 3b             	mov    (%rbx),%r15
    62e3:	4d 85 ff             	test   %r15,%r15
    62e6:	74 61                	je     6349 <splay_search+0x199>
    62e8:	4c 89 fe             	mov    %r15,%rsi
    62eb:	4c 89 e7             	mov    %r12,%rdi
    62ee:	ff d5                	callq  *%rbp
    62f0:	85 c0                	test   %eax,%eax
    62f2:	78 2c                	js     6320 <splay_search+0x170>
    62f4:	48 8b 04 24          	mov    (%rsp),%rax
    62f8:	48 89 1c 24          	mov    %rbx,(%rsp)
    62fc:	48 89 18             	mov    %rbx,(%rax)
    62ff:	48 89 43 10          	mov    %rax,0x10(%rbx)
    6303:	48 8b 1b             	mov    (%rbx),%rbx
    6306:	e9 e5 fe ff ff       	jmpq   61f0 <splay_search+0x40>
    630b:	0f 1f 44 00 00       	nopl   0x0(%rax,%rax,1)
    6310:	49 89 df             	mov    %rbx,%r15
    6313:	e9 30 ff ff ff       	jmpq   6248 <splay_search+0x98>
    6318:	0f 1f 84 00 00 00 00 	nopl   0x0(%rax,%rax,1)
    631f:	00 
    6320:	49 8b 47 08          	mov    0x8(%r15),%rax
    6324:	48 85 c0             	test   %rax,%rax
    6327:	48 89 03             	mov    %rax,(%rbx)
    632a:	74 04                	je     6330 <splay_search+0x180>
    632c:	48 89 58 10          	mov    %rbx,0x10(%rax)
    6330:	49 83 3f 00          	cmpq   $0x0,(%r15)
    6334:	48 8b 43 10          	mov    0x10(%rbx),%rax
    6338:	49 89 5f 08          	mov    %rbx,0x8(%r15)
    633c:	49 89 47 10          	mov    %rax,0x10(%r15)
    6340:	4c 89 7b 10          	mov    %r15,0x10(%rbx)
    6344:	4c 89 fb             	mov    %r15,%rbx
    6347:	75 ab                	jne    62f4 <splay_search+0x144>
    6349:	48 c7 43 10 00 00 00 	movq   $0x0,0x10(%rbx)
    6350:	00 
    6351:	49 c7 45 08 00 00 00 	movq   $0x0,0x8(%r13)
    6358:	00 
    6359:	e9 20 ff ff ff       	jmpq   627e <splay_search+0xce>
    635e:	66 90                	xchg   %ax,%ax
    6360:	49 c7 47 10 00 00 00 	movq   $0x0,0x10(%r15)
    6367:	00 
    6368:	48 89 d8             	mov    %rbx,%rax
    636b:	49 89 5d 08          	mov    %rbx,0x8(%r13)
    636f:	4c 89 fb             	mov    %r15,%rbx
    6372:	e9 03 ff ff ff       	jmpq   627a <splay_search+0xca>
    6377:	66 0f 1f 84 00 00 00 	nopw   0x0(%rax,%rax,1)
    637e:	00 00 

0000000000006380 <splay_map>:
    6380:	41 57                	push   %r15
    6382:	41 56                	push   %r14
    6384:	49 89 f6             	mov    %rsi,%r14
    6387:	41 55                	push   %r13
    6389:	41 54                	push   %r12
    638b:	49 89 fc             	mov    %rdi,%r12
    638e:	55                   	push   %rbp
    638f:	53                   	push   %rbx
    6390:	48 83 ec 38          	sub    $0x38,%rsp
    6394:	48 c7 07 00 00 00 00 	movq   $0x0,(%rdi)
    639b:	48 c7 47 08 00 00 00 	movq   $0x0,0x8(%rdi)
    63a2:	00 
    63a3:	48 c7 47 10 00 00 00 	movq   $0x0,0x10(%rdi)
    63aa:	00 
    63ab:	48 8b 1a             	mov    (%rdx),%rbx
    63ae:	4c 8d 6c 24 10       	lea    0x10(%rsp),%r13
    63b3:	48 89 54 24 08       	mov    %rdx,0x8(%rsp)
    63b8:	48 c7 44 24 10 00 00 	movq   $0x0,0x10(%rsp)
    63bf:	00 00 
    63c1:	48 c7 44 24 18 00 00 	movq   $0x0,0x18(%rsp)
    63c8:	00 00 
    63ca:	48 c7 44 24 20 00 00 	movq   $0x0,0x20(%rsp)
    63d1:	00 00 
    63d3:	4c 89 ed             	mov    %r13,%rbp
    63d6:	48 85 db             	test   %rbx,%rbx
    63d9:	75 4f                	jne    642a <splay_map+0xaa>
    63db:	e9 b5 01 00 00       	jmpq   6595 <splay_map+0x215>
    63e0:	4c 8b 7b 08          	mov    0x8(%rbx),%r15
    63e4:	4d 85 ff             	test   %r15,%r15
    63e7:	0f 84 03 01 00 00    	je     64f0 <splay_map+0x170>
    63ed:	4c 89 fe             	mov    %r15,%rsi
    63f0:	4c 89 e7             	mov    %r12,%rdi
    63f3:	41 ff d6             	callq  *%r14
    63f6:	83 f8 00             	cmp    $0x0,%eax
    63f9:	0f 8e 91 00 00 00    	jle    6490 <splay_map+0x110>
    63ff:	49 8b 07             	mov    (%r15),%rax
    6402:	48 85 c0             	test   %rax,%rax
    6405:	48 89 43 08          	mov    %rax,0x8(%rbx)
    6409:	74 04                	je     640f <splay_map+0x8f>
    640b:	48 89 58 10          	mov    %rbx,0x10(%rax)
    640f:	49 89 1f             	mov    %rbx,(%r15)
    6412:	4c 89 7b 10          	mov    %r15,0x10(%rbx)
    6416:	4c 89 7d 08          	mov    %r15,0x8(%rbp)
    641a:	49 8b 5f 08          	mov    0x8(%r15),%rbx
    641e:	49 89 6f 10          	mov    %rbp,0x10(%r15)
    6422:	4c 89 fd             	mov    %r15,%rbp
    6425:	48 85 db             	test   %rbx,%rbx
    6428:	74 54                	je     647e <splay_map+0xfe>
    642a:	48 89 de             	mov    %rbx,%rsi
    642d:	4c 89 e7             	mov    %r12,%rdi
    6430:	41 ff d6             	callq  *%r14
    6433:	85 c0                	test   %eax,%eax
    6435:	0f 84 cd 00 00 00    	je     6508 <splay_map+0x188>
    643b:	79 a3                	jns    63e0 <splay_map+0x60>
    643d:	4c 8b 3b             	mov    (%rbx),%r15
    6440:	4d 85 ff             	test   %r15,%r15
    6443:	0f 84 25 01 00 00    	je     656e <splay_map+0x1ee>
    6449:	4c 89 fe             	mov    %r15,%rsi
    644c:	4c 89 e7             	mov    %r12,%rdi
    644f:	41 ff d6             	callq  *%r14
    6452:	85 c0                	test   %eax,%eax
    6454:	78 6a                	js     64c0 <splay_map+0x140>
    6456:	49 89 5d 00          	mov    %rbx,0x0(%r13)
    645a:	4c 89 6b 10          	mov    %r13,0x10(%rbx)
    645e:	0f 84 1a 01 00 00    	je     657e <splay_map+0x1fe>
    6464:	48 8b 03             	mov    (%rbx),%rax
    6467:	49 89 dd             	mov    %rbx,%r13
    646a:	48 89 45 08          	mov    %rax,0x8(%rbp)
    646e:	48 8b 58 08          	mov    0x8(%rax),%rbx
    6472:	48 89 68 10          	mov    %rbp,0x10(%rax)
    6476:	48 89 c5             	mov    %rax,%rbp
    6479:	48 85 db             	test   %rbx,%rbx
    647c:	75 ac                	jne    642a <splay_map+0xaa>
    647e:	49 8b 04 24          	mov    (%r12),%rax
    6482:	4c 89 e3             	mov    %r12,%rbx
    6485:	e9 81 00 00 00       	jmpq   650b <splay_map+0x18b>
    648a:	66 0f 1f 44 00 00    	nopw   0x0(%rax,%rax,1)
    6490:	48 89 5d 08          	mov    %rbx,0x8(%rbp)
    6494:	48 89 6b 10          	mov    %rbp,0x10(%rbx)
    6498:	0f 84 eb 00 00 00    	je     6589 <splay_map+0x209>
    649e:	48 8b 43 08          	mov    0x8(%rbx),%rax
    64a2:	48 89 dd             	mov    %rbx,%rbp
    64a5:	49 89 45 00          	mov    %rax,0x0(%r13)
    64a9:	4c 89 68 10          	mov    %r13,0x10(%rax)
    64ad:	49 89 c5             	mov    %rax,%r13
    64b0:	48 8b 18             	mov    (%rax),%rbx
    64b3:	e9 6d ff ff ff       	jmpq   6425 <splay_map+0xa5>
    64b8:	0f 1f 84 00 00 00 00 	nopl   0x0(%rax,%rax,1)
    64bf:	00 
    64c0:	49 8b 47 08          	mov    0x8(%r15),%rax
    64c4:	48 85 c0             	test   %rax,%rax
    64c7:	48 89 03             	mov    %rax,(%rbx)
    64ca:	74 04                	je     64d0 <splay_map+0x150>
    64cc:	48 89 58 10          	mov    %rbx,0x10(%rax)
    64d0:	49 89 5f 08          	mov    %rbx,0x8(%r15)
    64d4:	4c 89 7b 10          	mov    %r15,0x10(%rbx)
    64d8:	4d 89 7d 00          	mov    %r15,0x0(%r13)
    64dc:	4d 89 6f 10          	mov    %r13,0x10(%r15)
    64e0:	4d 89 fd             	mov    %r15,%r13
    64e3:	49 8b 1f             	mov    (%r15),%rbx
    64e6:	e9 3a ff ff ff       	jmpq   6425 <splay_map+0xa5>
    64eb:	0f 1f 44 00 00       	nopl   0x0(%rax,%rax,1)
    64f0:	48 89 5d 08          	mov    %rbx,0x8(%rbp)
    64f4:	48 89 6b 10          	mov    %rbp,0x10(%rbx)
    64f8:	48 89 dd             	mov    %rbx,%rbp
    64fb:	48 8b 5b 08          	mov    0x8(%rbx),%rbx
    64ff:	48 85 db             	test   %rbx,%rbx
    6502:	0f 84 76 ff ff ff    	je     647e <splay_map+0xfe>
    6508:	48 8b 03             	mov    (%rbx),%rax
    650b:	48 85 c0             	test   %rax,%rax
    650e:	48 c7 43 10 00 00 00 	movq   $0x0,0x10(%rbx)
    6515:	00 
    6516:	48 89 45 08          	mov    %rax,0x8(%rbp)
    651a:	74 04                	je     6520 <splay_map+0x1a0>
    651c:	48 89 68 10          	mov    %rbp,0x10(%rax)
    6520:	48 8b 43 08          	mov    0x8(%rbx),%rax
    6524:	48 85 c0             	test   %rax,%rax
    6527:	49 89 45 00          	mov    %rax,0x0(%r13)
    652b:	74 04                	je     6531 <splay_map+0x1b1>
    652d:	4c 89 68 10          	mov    %r13,0x10(%rax)
    6531:	48 8b 44 24 18       	mov    0x18(%rsp),%rax
    6536:	48 85 c0             	test   %rax,%rax
    6539:	48 89 03             	mov    %rax,(%rbx)
    653c:	74 04                	je     6542 <splay_map+0x1c2>
    653e:	48 89 58 10          	mov    %rbx,0x10(%rax)
    6542:	48 8b 44 24 10       	mov    0x10(%rsp),%rax
    6547:	48 85 c0             	test   %rax,%rax
    654a:	48 89 43 08          	mov    %rax,0x8(%rbx)
    654e:	74 04                	je     6554 <splay_map+0x1d4>
    6550:	48 89 58 10          	mov    %rbx,0x10(%rax)
    6554:	48 8b 44 24 08       	mov    0x8(%rsp),%rax
    6559:	48 89 18             	mov    %rbx,(%rax)
    655c:	48 83 c4 38          	add    $0x38,%rsp
    6560:	48 89 d8             	mov    %rbx,%rax
    6563:	5b                   	pop    %rbx
    6564:	5d                   	pop    %rbp
    6565:	41 5c                	pop    %r12
    6567:	41 5d                	pop    %r13
    6569:	41 5e                	pop    %r14
    656b:	41 5f                	pop    %r15
    656d:	c3                   	retq   
    656e:	49 89 5d 00          	mov    %rbx,0x0(%r13)
    6572:	4c 89 6b 10          	mov    %r13,0x10(%rbx)
    6576:	49 89 dd             	mov    %rbx,%r13
    6579:	48 8b 1b             	mov    (%rbx),%rbx
    657c:	eb 81                	jmp    64ff <splay_map+0x17f>
    657e:	49 89 dd             	mov    %rbx,%r13
    6581:	48 8b 1b             	mov    (%rbx),%rbx
    6584:	e9 76 ff ff ff       	jmpq   64ff <splay_map+0x17f>
    6589:	48 89 dd             	mov    %rbx,%rbp
    658c:	48 8b 5b 08          	mov    0x8(%rbx),%rbx
    6590:	e9 6a ff ff ff       	jmpq   64ff <splay_map+0x17f>
    6595:	48 89 fb             	mov    %rdi,%rbx
    6598:	eb 97                	jmp    6531 <splay_map+0x1b1>
    659a:	66 0f 1f 44 00 00    	nopw   0x0(%rax,%rax,1)

00000000000065a0 <splay_search_np>:
    65a0:	41 57                	push   %r15
    65a2:	41 56                	push   %r14
    65a4:	41 55                	push   %r13
    65a6:	41 54                	push   %r12
    65a8:	49 89 fc             	mov    %rdi,%r12
    65ab:	55                   	push   %rbp
    65ac:	53                   	push   %rbx
    65ad:	48 89 f5             	mov    %rsi,%rbp
    65b0:	48 83 ec 28          	sub    $0x28,%rsp
    65b4:	48 8b 1a             	mov    (%rdx),%rbx
    65b7:	4c 8d 6c 24 10       	lea    0x10(%rsp),%r13
    65bc:	48 89 54 24 08       	mov    %rdx,0x8(%rsp)
    65c1:	48 c7 44 24 10 00 00 	movq   $0x0,0x10(%rsp)
    65c8:	00 00 
    65ca:	48 c7 44 24 18 00 00 	movq   $0x0,0x18(%rsp)
    65d1:	00 00 
    65d3:	4c 89 2c 24          	mov    %r13,(%rsp)
    65d7:	66 0f 1f 84 00 00 00 	nopw   0x0(%rax,%rax,1)
    65de:	00 00 
    65e0:	48 89 de             	mov    %rbx,%rsi
    65e3:	4c 89 e7             	mov    %r12,%rdi
    65e6:	ff d5                	callq  *%rbp
    65e8:	85 c0                	test   %eax,%eax
    65ea:	74 4b                	je     6637 <splay_search_np+0x97>
    65ec:	78 7a                	js     6668 <splay_search_np+0xc8>
    65ee:	4c 8b 73 08          	mov    0x8(%rbx),%r14
    65f2:	4d 85 f6             	test   %r14,%r14
    65f5:	0f 84 f5 00 00 00    	je     66f0 <splay_search_np+0x150>
    65fb:	4c 89 f6             	mov    %r14,%rsi
    65fe:	4c 89 e7             	mov    %r12,%rdi
    6601:	ff d5                	callq  *%rbp
    6603:	85 c0                	test   %eax,%eax
    6605:	0f 8e 85 00 00 00    	jle    6690 <splay_search_np+0xf0>
    660b:	49 8b 06             	mov    (%r14),%rax
    660e:	48 89 43 08          	mov    %rax,0x8(%rbx)
    6612:	49 83 7e 08 00       	cmpq   $0x0,0x8(%r14)
    6617:	49 89 1e             	mov    %rbx,(%r14)
    661a:	0f 84 d8 00 00 00    	je     66f8 <splay_search_np+0x158>
    6620:	4d 89 75 08          	mov    %r14,0x8(%r13)
    6624:	49 8b 5e 08          	mov    0x8(%r14),%rbx
    6628:	4c 89 e7             	mov    %r12,%rdi
    662b:	4d 89 f5             	mov    %r14,%r13
    662e:	48 89 de             	mov    %rbx,%rsi
    6631:	ff d5                	callq  *%rbp
    6633:	85 c0                	test   %eax,%eax
    6635:	75 b5                	jne    65ec <splay_search_np+0x4c>
    6637:	48 8b 03             	mov    (%rbx),%rax
    663a:	48 8b 14 24          	mov    (%rsp),%rdx
    663e:	49 89 45 08          	mov    %rax,0x8(%r13)
    6642:	48 8b 43 08          	mov    0x8(%rbx),%rax
    6646:	48 89 02             	mov    %rax,(%rdx)
    6649:	48 8b 44 24 18       	mov    0x18(%rsp),%rax
    664e:	48 89 03             	mov    %rax,(%rbx)
    6651:	48 8b 44 24 10       	mov    0x10(%rsp),%rax
    6656:	48 89 43 08          	mov    %rax,0x8(%rbx)
    665a:	48 8b 44 24 08       	mov    0x8(%rsp),%rax
    665f:	48 89 18             	mov    %rbx,(%rax)
    6662:	eb 76                	jmp    66da <splay_search_np+0x13a>
    6664:	0f 1f 40 00          	nopl   0x0(%rax)
    6668:	4c 8b 3b             	mov    (%rbx),%r15
    666b:	4d 85 ff             	test   %r15,%r15
    666e:	74 40                	je     66b0 <splay_search_np+0x110>
    6670:	4c 89 fe             	mov    %r15,%rsi
    6673:	4c 89 e7             	mov    %r12,%rdi
    6676:	ff d5                	callq  *%rbp
    6678:	85 c0                	test   %eax,%eax
    667a:	78 1c                	js     6698 <splay_search_np+0xf8>
    667c:	48 8b 04 24          	mov    (%rsp),%rax
    6680:	48 89 1c 24          	mov    %rbx,(%rsp)
    6684:	48 89 18             	mov    %rbx,(%rax)
    6687:	48 8b 1b             	mov    (%rbx),%rbx
    668a:	e9 51 ff ff ff       	jmpq   65e0 <splay_search_np+0x40>
    668f:	90                   	nop
    6690:	49 89 de             	mov    %rbx,%r14
    6693:	eb 8b                	jmp    6620 <splay_search_np+0x80>
    6695:	0f 1f 00             	nopl   (%rax)
    6698:	49 8b 47 08          	mov    0x8(%r15),%rax
    669c:	48 89 03             	mov    %rax,(%rbx)
    669f:	49 83 3f 00          	cmpq   $0x0,(%r15)
    66a3:	49 89 5f 08          	mov    %rbx,0x8(%r15)
    66a7:	4c 89 fb             	mov    %r15,%rbx
    66aa:	75 d0                	jne    667c <splay_search_np+0xdc>
    66ac:	45 31 ff             	xor    %r15d,%r15d
    66af:	90                   	nop
    66b0:	4d 89 7d 08          	mov    %r15,0x8(%r13)
    66b4:	48 8b 0c 24          	mov    (%rsp),%rcx
    66b8:	48 8b 43 08          	mov    0x8(%rbx),%rax
    66bc:	48 89 01             	mov    %rax,(%rcx)
    66bf:	48 8b 44 24 18       	mov    0x18(%rsp),%rax
    66c4:	48 89 03             	mov    %rax,(%rbx)
    66c7:	48 8b 44 24 10       	mov    0x10(%rsp),%rax
    66cc:	48 89 43 08          	mov    %rax,0x8(%rbx)
    66d0:	48 8b 44 24 08       	mov    0x8(%rsp),%rax
    66d5:	48 89 18             	mov    %rbx,(%rax)
    66d8:	31 db                	xor    %ebx,%ebx
    66da:	48 83 c4 28          	add    $0x28,%rsp
    66de:	48 89 d8             	mov    %rbx,%rax
    66e1:	5b                   	pop    %rbx
    66e2:	5d                   	pop    %rbp
    66e3:	41 5c                	pop    %r12
    66e5:	41 5d                	pop    %r13
    66e7:	41 5e                	pop    %r14
    66e9:	41 5f                	pop    %r15
    66eb:	c3                   	retq   
    66ec:	0f 1f 40 00          	nopl   0x0(%rax)
    66f0:	4c 8b 3b             	mov    (%rbx),%r15
    66f3:	eb bb                	jmp    66b0 <splay_search_np+0x110>
    66f5:	0f 1f 00             	nopl   (%rax)
    66f8:	49 89 df             	mov    %rbx,%r15
    66fb:	4c 89 f3             	mov    %r14,%rbx
    66fe:	eb b0                	jmp    66b0 <splay_search_np+0x110>

0000000000006700 <splay_map_np>:
    6700:	41 57                	push   %r15
    6702:	41 56                	push   %r14
    6704:	41 55                	push   %r13
    6706:	41 54                	push   %r12
    6708:	49 89 f4             	mov    %rsi,%r12
    670b:	55                   	push   %rbp
    670c:	53                   	push   %rbx
    670d:	48 89 fd             	mov    %rdi,%rbp
    6710:	48 83 ec 28          	sub    $0x28,%rsp
    6714:	48 c7 47 08 00 00 00 	movq   $0x0,0x8(%rdi)
    671b:	00 
    671c:	48 c7 07 00 00 00 00 	movq   $0x0,(%rdi)
    6723:	48 8b 1a             	mov    (%rdx),%rbx
    6726:	4c 8d 74 24 10       	lea    0x10(%rsp),%r14
    672b:	48 89 54 24 08       	mov    %rdx,0x8(%rsp)
    6730:	48 c7 44 24 10 00 00 	movq   $0x0,0x10(%rsp)
    6737:	00 00 
    6739:	48 c7 44 24 18 00 00 	movq   $0x0,0x18(%rsp)
    6740:	00 00 
    6742:	4d 89 f5             	mov    %r14,%r13
    6745:	48 85 db             	test   %rbx,%rbx
    6748:	75 3b                	jne    6785 <splay_map_np+0x85>
    674a:	e9 36 01 00 00       	jmpq   6885 <splay_map_np+0x185>
    674f:	90                   	nop
    6750:	4c 8b 7b 08          	mov    0x8(%rbx),%r15
    6754:	4d 85 ff             	test   %r15,%r15
    6757:	0f 84 c3 00 00 00    	je     6820 <splay_map_np+0x120>
    675d:	4c 89 fe             	mov    %r15,%rsi
    6760:	48 89 ef             	mov    %rbp,%rdi
    6763:	41 ff d4             	callq  *%r12
    6766:	83 f8 00             	cmp    $0x0,%eax
    6769:	7e 75                	jle    67e0 <splay_map_np+0xe0>
    676b:	49 8b 07             	mov    (%r15),%rax
    676e:	48 89 43 08          	mov    %rax,0x8(%rbx)
    6772:	49 89 1f             	mov    %rbx,(%r15)
    6775:	4d 89 7d 08          	mov    %r15,0x8(%r13)
    6779:	49 8b 5f 08          	mov    0x8(%r15),%rbx
    677d:	4d 89 fd             	mov    %r15,%r13
    6780:	48 85 db             	test   %rbx,%rbx
    6783:	74 4b                	je     67d0 <splay_map_np+0xd0>
    6785:	48 89 de             	mov    %rbx,%rsi
    6788:	48 89 ef             	mov    %rbp,%rdi
    678b:	41 ff d4             	callq  *%r12
    678e:	85 c0                	test   %eax,%eax
    6790:	0f 84 9a 00 00 00    	je     6830 <splay_map_np+0x130>
    6796:	79 b8                	jns    6750 <splay_map_np+0x50>
    6798:	4c 8b 3b             	mov    (%rbx),%r15
    679b:	4d 85 ff             	test   %r15,%r15
    679e:	0f 84 c5 00 00 00    	je     6869 <splay_map_np+0x169>
    67a4:	4c 89 fe             	mov    %r15,%rsi
    67a7:	48 89 ef             	mov    %rbp,%rdi
    67aa:	41 ff d4             	callq  *%r12
    67ad:	85 c0                	test   %eax,%eax
    67af:	78 4f                	js     6800 <splay_map_np+0x100>
    67b1:	49 89 1e             	mov    %rbx,(%r14)
    67b4:	0f 84 ba 00 00 00    	je     6874 <splay_map_np+0x174>
    67ba:	48 8b 03             	mov    (%rbx),%rax
    67bd:	49 89 de             	mov    %rbx,%r14
    67c0:	49 89 45 08          	mov    %rax,0x8(%r13)
    67c4:	48 8b 58 08          	mov    0x8(%rax),%rbx
    67c8:	49 89 c5             	mov    %rax,%r13
    67cb:	48 85 db             	test   %rbx,%rbx
    67ce:	75 b5                	jne    6785 <splay_map_np+0x85>
    67d0:	48 8b 45 00          	mov    0x0(%rbp),%rax
    67d4:	48 89 eb             	mov    %rbp,%rbx
    67d7:	eb 5a                	jmp    6833 <splay_map_np+0x133>
    67d9:	0f 1f 80 00 00 00 00 	nopl   0x0(%rax)
    67e0:	49 89 5d 08          	mov    %rbx,0x8(%r13)
    67e4:	0f 84 92 00 00 00    	je     687c <splay_map_np+0x17c>
    67ea:	48 8b 43 08          	mov    0x8(%rbx),%rax
    67ee:	49 89 dd             	mov    %rbx,%r13
    67f1:	49 89 06             	mov    %rax,(%r14)
    67f4:	49 89 c6             	mov    %rax,%r14
    67f7:	48 8b 18             	mov    (%rax),%rbx
    67fa:	eb 84                	jmp    6780 <splay_map_np+0x80>
    67fc:	0f 1f 40 00          	nopl   0x0(%rax)
    6800:	49 8b 47 08          	mov    0x8(%r15),%rax
    6804:	48 89 03             	mov    %rax,(%rbx)
    6807:	49 89 5f 08          	mov    %rbx,0x8(%r15)
    680b:	4d 89 3e             	mov    %r15,(%r14)
    680e:	4d 89 fe             	mov    %r15,%r14
    6811:	49 8b 1f             	mov    (%r15),%rbx
    6814:	e9 67 ff ff ff       	jmpq   6780 <splay_map_np+0x80>
    6819:	0f 1f 80 00 00 00 00 	nopl   0x0(%rax)
    6820:	49 89 5d 08          	mov    %rbx,0x8(%r13)
    6824:	49 89 dd             	mov    %rbx,%r13
    6827:	48 8b 5b 08          	mov    0x8(%rbx),%rbx
    682b:	48 85 db             	test   %rbx,%rbx
    682e:	74 a0                	je     67d0 <splay_map_np+0xd0>
    6830:	48 8b 03             	mov    (%rbx),%rax
    6833:	49 89 45 08          	mov    %rax,0x8(%r13)
    6837:	48 8b 43 08          	mov    0x8(%rbx),%rax
    683b:	49 89 06             	mov    %rax,(%r14)
    683e:	48 8b 44 24 18       	mov    0x18(%rsp),%rax
    6843:	48 89 03             	mov    %rax,(%rbx)
    6846:	48 8b 44 24 10       	mov    0x10(%rsp),%rax
    684b:	48 89 43 08          	mov    %rax,0x8(%rbx)
    684f:	48 8b 44 24 08       	mov    0x8(%rsp),%rax
    6854:	48 89 18             	mov    %rbx,(%rax)
    6857:	48 83 c4 28          	add    $0x28,%rsp
    685b:	48 89 d8             	mov    %rbx,%rax
    685e:	5b                   	pop    %rbx
    685f:	5d                   	pop    %rbp
    6860:	41 5c                	pop    %r12
    6862:	41 5d                	pop    %r13
    6864:	41 5e                	pop    %r14
    6866:	41 5f                	pop    %r15
    6868:	c3                   	retq   
    6869:	49 89 1e             	mov    %rbx,(%r14)
    686c:	49 89 de             	mov    %rbx,%r14
    686f:	48 8b 1b             	mov    (%rbx),%rbx
    6872:	eb b7                	jmp    682b <splay_map_np+0x12b>
    6874:	49 89 de             	mov    %rbx,%r14
    6877:	48 8b 1b             	mov    (%rbx),%rbx
    687a:	eb af                	jmp    682b <splay_map_np+0x12b>
    687c:	49 89 dd             	mov    %rbx,%r13
    687f:	48 8b 5b 08          	mov    0x8(%rbx),%rbx
    6883:	eb a6                	jmp    682b <splay_map_np+0x12b>
    6885:	31 c0                	xor    %eax,%eax
    6887:	48 89 fb             	mov    %rdi,%rbx
    688a:	eb a7                	jmp    6833 <splay_map_np+0x133>
    688c:	0f 1f 40 00          	nopl   0x0(%rax)

0000000000006890 <avl_add>:
    6890:	55                   	push   %rbp
    6891:	53                   	push   %rbx
    6892:	48 89 fd             	mov    %rdi,%rbp
    6895:	48 89 d3             	mov    %rdx,%rbx
    6898:	48 83 ec 08          	sub    $0x8,%rsp
    689c:	80 67 18 f8          	andb   $0xf8,0x18(%rdi)
    68a0:	e8 1b ba ff ff       	callq  22c0 <tree_add@plt>
    68a5:	31 f6                	xor    %esi,%esi
    68a7:	eb 18                	jmp    68c1 <avl_add+0x31>
    68a9:	0f 1f 80 00 00 00 00 	nopl   0x0(%rax)
    68b0:	83 c0 01             	add    $0x1,%eax
    68b3:	83 e2 f8             	and    $0xfffffff8,%edx
    68b6:	83 e0 07             	and    $0x7,%eax
    68b9:	09 d0                	or     %edx,%eax
    68bb:	88 41 18             	mov    %al,0x18(%rcx)
    68be:	48 89 cd             	mov    %rcx,%rbp
    68c1:	48 8b 4d 10          	mov    0x10(%rbp),%rcx
    68c5:	48 85 c9             	test   %rcx,%rcx
    68c8:	74 2e                	je     68f8 <avl_add+0x68>
    68ca:	85 f6                	test   %esi,%esi
    68cc:	75 2a                	jne    68f8 <avl_add+0x68>
    68ce:	0f b6 51 18          	movzbl 0x18(%rcx),%edx
    68d2:	89 d0                	mov    %edx,%eax
    68d4:	c1 e0 05             	shl    $0x5,%eax
    68d7:	c0 f8 05             	sar    $0x5,%al
    68da:	0f be f0             	movsbl %al,%esi
    68dd:	83 e0 07             	and    $0x7,%eax
    68e0:	48 39 29             	cmp    %rbp,(%rcx)
    68e3:	75 cb                	jne    68b0 <avl_add+0x20>
    68e5:	83 c0 07             	add    $0x7,%eax
    68e8:	83 e2 f8             	and    $0xfffffff8,%edx
    68eb:	83 e0 07             	and    $0x7,%eax
    68ee:	09 d0                	or     %edx,%eax
    68f0:	88 41 18             	mov    %al,0x18(%rcx)
    68f3:	eb c9                	jmp    68be <avl_add+0x2e>
    68f5:	0f 1f 00             	nopl   (%rax)
    68f8:	0f b6 45 18          	movzbl 0x18(%rbp),%eax
    68fc:	83 e0 07             	and    $0x7,%eax
    68ff:	3c 06                	cmp    $0x6,%al
    6901:	0f 84 d1 00 00 00    	je     69d8 <avl_add+0x148>
    6907:	3c 02                	cmp    $0x2,%al
    6909:	74 0d                	je     6918 <avl_add+0x88>
    690b:	48 83 c4 08          	add    $0x8,%rsp
    690f:	5b                   	pop    %rbx
    6910:	5d                   	pop    %rbp
    6911:	c3                   	retq   
    6912:	66 0f 1f 44 00 00    	nopw   0x0(%rax,%rax,1)
    6918:	48 8b 45 08          	mov    0x8(%rbp),%rax
    691c:	0f b6 70 18          	movzbl 0x18(%rax),%esi
    6920:	48 8b 10             	mov    (%rax),%rdx
    6923:	83 e6 07             	and    $0x7,%esi
    6926:	40 80 fe 01          	cmp    $0x1,%sil
    692a:	0f 84 60 01 00 00    	je     6a90 <avl_add+0x200>
    6930:	48 8b 4a 08          	mov    0x8(%rdx),%rcx
    6934:	48 85 c9             	test   %rcx,%rcx
    6937:	48 89 08             	mov    %rcx,(%rax)
    693a:	74 04                	je     6940 <avl_add+0xb0>
    693c:	48 89 41 10          	mov    %rax,0x10(%rcx)
    6940:	48 8b 48 10          	mov    0x10(%rax),%rcx
    6944:	48 89 4a 10          	mov    %rcx,0x10(%rdx)
    6948:	48 8b 48 10          	mov    0x10(%rax),%rcx
    694c:	48 85 c9             	test   %rcx,%rcx
    694f:	0f 84 3f 02 00 00    	je     6b94 <avl_add+0x304>
    6955:	48 3b 01             	cmp    (%rcx),%rax
    6958:	0f 84 4e 02 00 00    	je     6bac <avl_add+0x31c>
    695e:	48 89 51 08          	mov    %rdx,0x8(%rcx)
    6962:	48 89 42 08          	mov    %rax,0x8(%rdx)
    6966:	48 8b 4d 08          	mov    0x8(%rbp),%rcx
    696a:	48 89 50 10          	mov    %rdx,0x10(%rax)
    696e:	48 8b 31             	mov    (%rcx),%rsi
    6971:	48 85 f6             	test   %rsi,%rsi
    6974:	48 89 75 08          	mov    %rsi,0x8(%rbp)
    6978:	74 04                	je     697e <avl_add+0xee>
    697a:	48 89 6e 10          	mov    %rbp,0x10(%rsi)
    697e:	48 8b 75 10          	mov    0x10(%rbp),%rsi
    6982:	48 89 71 10          	mov    %rsi,0x10(%rcx)
    6986:	48 8b 75 10          	mov    0x10(%rbp),%rsi
    698a:	48 85 f6             	test   %rsi,%rsi
    698d:	0f 84 f9 01 00 00    	je     6b8c <avl_add+0x2fc>
    6993:	48 3b 2e             	cmp    (%rsi),%rbp
    6996:	0f 84 20 02 00 00    	je     6bbc <avl_add+0x32c>
    699c:	48 89 4e 08          	mov    %rcx,0x8(%rsi)
    69a0:	48 89 29             	mov    %rbp,(%rcx)
    69a3:	48 89 4d 10          	mov    %rcx,0x10(%rbp)
    69a7:	0f b6 4a 18          	movzbl 0x18(%rdx),%ecx
    69ab:	83 e1 07             	and    $0x7,%ecx
    69ae:	80 f9 07             	cmp    $0x7,%cl
    69b1:	0f 84 ae 01 00 00    	je     6b65 <avl_add+0x2d5>
    69b7:	80 60 18 f8          	andb   $0xf8,0x18(%rax)
    69bb:	84 c9                	test   %cl,%cl
    69bd:	0f 85 b8 01 00 00    	jne    6b7b <avl_add+0x2eb>
    69c3:	80 65 18 f8          	andb   $0xf8,0x18(%rbp)
    69c7:	80 62 18 f8          	andb   $0xf8,0x18(%rdx)
    69cb:	48 83 c4 08          	add    $0x8,%rsp
    69cf:	5b                   	pop    %rbx
    69d0:	5d                   	pop    %rbp
    69d1:	c3                   	retq   
    69d2:	66 0f 1f 44 00 00    	nopw   0x0(%rax,%rax,1)
    69d8:	48 8b 45 00          	mov    0x0(%rbp),%rax
    69dc:	0f b6 70 18          	movzbl 0x18(%rax),%esi
    69e0:	48 8b 50 08          	mov    0x8(%rax),%rdx
    69e4:	83 e6 07             	and    $0x7,%esi
    69e7:	40 80 fe 07          	cmp    $0x7,%sil
    69eb:	0f 84 ef 00 00 00    	je     6ae0 <avl_add+0x250>
    69f1:	48 8b 0a             	mov    (%rdx),%rcx
    69f4:	48 85 c9             	test   %rcx,%rcx
    69f7:	48 89 48 08          	mov    %rcx,0x8(%rax)
    69fb:	74 04                	je     6a01 <avl_add+0x171>
    69fd:	48 89 41 10          	mov    %rax,0x10(%rcx)
    6a01:	48 8b 48 10          	mov    0x10(%rax),%rcx
    6a05:	48 89 4a 10          	mov    %rcx,0x10(%rdx)
    6a09:	48 8b 48 10          	mov    0x10(%rax),%rcx
    6a0d:	48 85 c9             	test   %rcx,%rcx
    6a10:	0f 84 bd 00 00 00    	je     6ad3 <avl_add+0x243>
    6a16:	48 3b 01             	cmp    (%rcx),%rax
    6a19:	0f 84 85 01 00 00    	je     6ba4 <avl_add+0x314>
    6a1f:	48 89 51 08          	mov    %rdx,0x8(%rcx)
    6a23:	48 89 02             	mov    %rax,(%rdx)
    6a26:	48 8b 4d 00          	mov    0x0(%rbp),%rcx
    6a2a:	48 89 50 10          	mov    %rdx,0x10(%rax)
    6a2e:	48 8b 71 08          	mov    0x8(%rcx),%rsi
    6a32:	48 85 f6             	test   %rsi,%rsi
    6a35:	48 89 75 00          	mov    %rsi,0x0(%rbp)
    6a39:	74 04                	je     6a3f <avl_add+0x1af>
    6a3b:	48 89 6e 10          	mov    %rbp,0x10(%rsi)
    6a3f:	48 8b 75 10          	mov    0x10(%rbp),%rsi
    6a43:	48 89 71 10          	mov    %rsi,0x10(%rcx)
    6a47:	48 8b 75 10          	mov    0x10(%rbp),%rsi
    6a4b:	48 85 f6             	test   %rsi,%rsi
    6a4e:	0f 84 09 01 00 00    	je     6b5d <avl_add+0x2cd>
    6a54:	48 3b 2e             	cmp    (%rsi),%rbp
    6a57:	0f 84 3f 01 00 00    	je     6b9c <avl_add+0x30c>
    6a5d:	48 89 4e 08          	mov    %rcx,0x8(%rsi)
    6a61:	48 89 69 08          	mov    %rbp,0x8(%rcx)
    6a65:	48 89 4d 10          	mov    %rcx,0x10(%rbp)
    6a69:	0f b6 4a 18          	movzbl 0x18(%rdx),%ecx
    6a6d:	83 e1 07             	and    $0x7,%ecx
    6a70:	80 f9 07             	cmp    $0x7,%cl
    6a73:	0f 84 b7 00 00 00    	je     6b30 <avl_add+0x2a0>
    6a79:	84 c9                	test   %cl,%cl
    6a7b:	0f 85 cf 00 00 00    	jne    6b50 <avl_add+0x2c0>
    6a81:	80 60 18 f8          	andb   $0xf8,0x18(%rax)
    6a85:	80 65 18 f8          	andb   $0xf8,0x18(%rbp)
    6a89:	e9 39 ff ff ff       	jmpq   69c7 <avl_add+0x137>
    6a8e:	66 90                	xchg   %ax,%ax
    6a90:	48 85 d2             	test   %rdx,%rdx
    6a93:	48 89 55 08          	mov    %rdx,0x8(%rbp)
    6a97:	74 08                	je     6aa1 <avl_add+0x211>
    6a99:	48 89 6a 10          	mov    %rbp,0x10(%rdx)
    6a9d:	48 8b 4d 10          	mov    0x10(%rbp),%rcx
    6aa1:	48 89 48 10          	mov    %rcx,0x10(%rax)
    6aa5:	48 8b 55 10          	mov    0x10(%rbp),%rdx
    6aa9:	48 85 d2             	test   %rdx,%rdx
    6aac:	0f 84 12 01 00 00    	je     6bc4 <avl_add+0x334>
    6ab2:	48 3b 2a             	cmp    (%rdx),%rbp
    6ab5:	0f 84 c9 00 00 00    	je     6b84 <avl_add+0x2f4>
    6abb:	48 89 42 08          	mov    %rax,0x8(%rdx)
    6abf:	48 89 28             	mov    %rbp,(%rax)
    6ac2:	48 89 45 10          	mov    %rax,0x10(%rbp)
    6ac6:	80 60 18 f8          	andb   $0xf8,0x18(%rax)
    6aca:	80 65 18 f8          	andb   $0xf8,0x18(%rbp)
    6ace:	e9 38 fe ff ff       	jmpq   690b <avl_add+0x7b>
    6ad3:	48 89 13             	mov    %rdx,(%rbx)
    6ad6:	e9 48 ff ff ff       	jmpq   6a23 <avl_add+0x193>
    6adb:	0f 1f 44 00 00       	nopl   0x0(%rax,%rax,1)
    6ae0:	48 85 d2             	test   %rdx,%rdx
    6ae3:	48 89 55 00          	mov    %rdx,0x0(%rbp)
    6ae7:	74 08                	je     6af1 <avl_add+0x261>
    6ae9:	48 89 6a 10          	mov    %rbp,0x10(%rdx)
    6aed:	48 8b 4d 10          	mov    0x10(%rbp),%rcx
    6af1:	48 89 48 10          	mov    %rcx,0x10(%rax)
    6af5:	48 8b 55 10          	mov    0x10(%rbp),%rdx
    6af9:	48 85 d2             	test   %rdx,%rdx
    6afc:	0f 84 b2 00 00 00    	je     6bb4 <avl_add+0x324>
    6b02:	48 3b 2a             	cmp    (%rdx),%rbp
    6b05:	0f 84 c1 00 00 00    	je     6bcc <avl_add+0x33c>
    6b0b:	48 89 42 08          	mov    %rax,0x8(%rdx)
    6b0f:	48 89 68 08          	mov    %rbp,0x8(%rax)
    6b13:	48 89 45 10          	mov    %rax,0x10(%rbp)
    6b17:	80 60 18 f8          	andb   $0xf8,0x18(%rax)
    6b1b:	80 65 18 f8          	andb   $0xf8,0x18(%rbp)
    6b1f:	48 83 c4 08          	add    $0x8,%rsp
    6b23:	5b                   	pop    %rbx
    6b24:	5d                   	pop    %rbp
    6b25:	c3                   	retq   
    6b26:	66 2e 0f 1f 84 00 00 	nopw   %cs:0x0(%rax,%rax,1)
    6b2d:	00 00 00 
    6b30:	80 60 18 f8          	andb   $0xf8,0x18(%rax)
    6b34:	0f b6 45 18          	movzbl 0x18(%rbp),%eax
    6b38:	83 e0 f8             	and    $0xfffffff8,%eax
    6b3b:	83 c8 01             	or     $0x1,%eax
    6b3e:	88 45 18             	mov    %al,0x18(%rbp)
    6b41:	e9 81 fe ff ff       	jmpq   69c7 <avl_add+0x137>
    6b46:	66 2e 0f 1f 84 00 00 	nopw   %cs:0x0(%rax,%rax,1)
    6b4d:	00 00 00 
    6b50:	80 48 18 07          	orb    $0x7,0x18(%rax)
    6b54:	80 65 18 f8          	andb   $0xf8,0x18(%rbp)
    6b58:	e9 6a fe ff ff       	jmpq   69c7 <avl_add+0x137>
    6b5d:	48 89 0b             	mov    %rcx,(%rbx)
    6b60:	e9 fc fe ff ff       	jmpq   6a61 <avl_add+0x1d1>
    6b65:	0f b6 48 18          	movzbl 0x18(%rax),%ecx
    6b69:	83 e1 f8             	and    $0xfffffff8,%ecx
    6b6c:	83 c9 01             	or     $0x1,%ecx
    6b6f:	88 48 18             	mov    %cl,0x18(%rax)
    6b72:	80 65 18 f8          	andb   $0xf8,0x18(%rbp)
    6b76:	e9 4c fe ff ff       	jmpq   69c7 <avl_add+0x137>
    6b7b:	80 4d 18 07          	orb    $0x7,0x18(%rbp)
    6b7f:	e9 43 fe ff ff       	jmpq   69c7 <avl_add+0x137>
    6b84:	48 89 02             	mov    %rax,(%rdx)
    6b87:	e9 33 ff ff ff       	jmpq   6abf <avl_add+0x22f>
    6b8c:	48 89 0b             	mov    %rcx,(%rbx)
    6b8f:	e9 0c fe ff ff       	jmpq   69a0 <avl_add+0x110>
    6b94:	48 89 13             	mov    %rdx,(%rbx)
    6b97:	e9 c6 fd ff ff       	jmpq   6962 <avl_add+0xd2>
    6b9c:	48 89 0e             	mov    %rcx,(%rsi)
    6b9f:	e9 bd fe ff ff       	jmpq   6a61 <avl_add+0x1d1>
    6ba4:	48 89 11             	mov    %rdx,(%rcx)
    6ba7:	e9 77 fe ff ff       	jmpq   6a23 <avl_add+0x193>
    6bac:	48 89 11             	mov    %rdx,(%rcx)
    6baf:	e9 ae fd ff ff       	jmpq   6962 <avl_add+0xd2>
    6bb4:	48 89 03             	mov    %rax,(%rbx)
    6bb7:	e9 53 ff ff ff       	jmpq   6b0f <avl_add+0x27f>
    6bbc:	48 89 0e             	mov    %rcx,(%rsi)
    6bbf:	e9 dc fd ff ff       	jmpq   69a0 <avl_add+0x110>
    6bc4:	48 89 03             	mov    %rax,(%rbx)
    6bc7:	e9 f3 fe ff ff       	jmpq   6abf <avl_add+0x22f>
    6bcc:	48 89 02             	mov    %rax,(%rdx)
    6bcf:	e9 3b ff ff ff       	jmpq   6b0f <avl_add+0x27f>
    6bd4:	66 90                	xchg   %ax,%ax
    6bd6:	66 2e 0f 1f 84 00 00 	nopw   %cs:0x0(%rax,%rax,1)
    6bdd:	00 00 00 

0000000000006be0 <avl_map>:
    6be0:	55                   	push   %rbp
    6be1:	53                   	push   %rbx
    6be2:	48 89 fd             	mov    %rdi,%rbp
    6be5:	48 89 d3             	mov    %rdx,%rbx
    6be8:	48 83 ec 08          	sub    $0x8,%rsp
    6bec:	80 67 18 f8          	andb   $0xf8,0x18(%rdi)
    6bf0:	e8 0b b3 ff ff       	callq  1f00 <tree_map@plt>
    6bf5:	48 39 c5             	cmp    %rax,%rbp
    6bf8:	74 0e                	je     6c08 <avl_map+0x28>
    6bfa:	48 83 c4 08          	add    $0x8,%rsp
    6bfe:	5b                   	pop    %rbx
    6bff:	5d                   	pop    %rbp
    6c00:	c3                   	retq   
    6c01:	0f 1f 80 00 00 00 00 	nopl   0x0(%rax)
    6c08:	31 ff                	xor    %edi,%edi
    6c0a:	eb 15                	jmp    6c21 <avl_map+0x41>
    6c0c:	0f 1f 40 00          	nopl   0x0(%rax)
    6c10:	83 c2 01             	add    $0x1,%edx
    6c13:	83 e1 f8             	and    $0xfffffff8,%ecx
    6c16:	83 e2 07             	and    $0x7,%edx
    6c19:	09 ca                	or     %ecx,%edx
    6c1b:	88 56 18             	mov    %dl,0x18(%rsi)
    6c1e:	48 89 f5             	mov    %rsi,%rbp
    6c21:	48 8b 75 10          	mov    0x10(%rbp),%rsi
    6c25:	48 85 f6             	test   %rsi,%rsi
    6c28:	74 2e                	je     6c58 <avl_map+0x78>
    6c2a:	85 ff                	test   %edi,%edi
    6c2c:	75 2a                	jne    6c58 <avl_map+0x78>
    6c2e:	0f b6 4e 18          	movzbl 0x18(%rsi),%ecx
    6c32:	89 ca                	mov    %ecx,%edx
    6c34:	c1 e2 05             	shl    $0x5,%edx
    6c37:	c0 fa 05             	sar    $0x5,%dl
    6c3a:	0f be fa             	movsbl %dl,%edi
    6c3d:	83 e2 07             	and    $0x7,%edx
    6c40:	48 39 2e             	cmp    %rbp,(%rsi)
    6c43:	75 cb                	jne    6c10 <avl_map+0x30>
    6c45:	83 c2 07             	add    $0x7,%edx
    6c48:	83 e1 f8             	and    $0xfffffff8,%ecx
    6c4b:	83 e2 07             	and    $0x7,%edx
    6c4e:	09 ca                	or     %ecx,%edx
    6c50:	88 56 18             	mov    %dl,0x18(%rsi)
    6c53:	eb c9                	jmp    6c1e <avl_map+0x3e>
    6c55:	0f 1f 00             	nopl   (%rax)
    6c58:	0f b6 55 18          	movzbl 0x18(%rbp),%edx
    6c5c:	83 e2 07             	and    $0x7,%edx
    6c5f:	80 fa 06             	cmp    $0x6,%dl
    6c62:	0f 84 c8 00 00 00    	je     6d30 <avl_map+0x150>
    6c68:	80 fa 02             	cmp    $0x2,%dl
    6c6b:	75 8d                	jne    6bfa <avl_map+0x1a>
    6c6d:	48 8b 55 08          	mov    0x8(%rbp),%rdx
    6c71:	0f b6 7a 18          	movzbl 0x18(%rdx),%edi
    6c75:	48 8b 0a             	mov    (%rdx),%rcx
    6c78:	83 e7 07             	and    $0x7,%edi
    6c7b:	40 80 ff 01          	cmp    $0x1,%dil
    6c7f:	0f 84 b3 01 00 00    	je     6e38 <avl_map+0x258>
    6c85:	48 8b 71 08          	mov    0x8(%rcx),%rsi
    6c89:	48 85 f6             	test   %rsi,%rsi
    6c8c:	48 89 32             	mov    %rsi,(%rdx)
    6c8f:	74 04                	je     6c95 <avl_map+0xb5>
    6c91:	48 89 56 10          	mov    %rdx,0x10(%rsi)
    6c95:	48 8b 72 10          	mov    0x10(%rdx),%rsi
    6c99:	48 89 71 10          	mov    %rsi,0x10(%rcx)
    6c9d:	48 8b 72 10          	mov    0x10(%rdx),%rsi
    6ca1:	48 85 f6             	test   %rsi,%rsi
    6ca4:	0f 84 3b 02 00 00    	je     6ee5 <avl_map+0x305>
    6caa:	48 3b 16             	cmp    (%rsi),%rdx
    6cad:	0f 84 52 02 00 00    	je     6f05 <avl_map+0x325>
    6cb3:	48 89 4e 08          	mov    %rcx,0x8(%rsi)
    6cb7:	48 89 51 08          	mov    %rdx,0x8(%rcx)
    6cbb:	48 8b 75 08          	mov    0x8(%rbp),%rsi
    6cbf:	48 89 4a 10          	mov    %rcx,0x10(%rdx)
    6cc3:	48 8b 3e             	mov    (%rsi),%rdi
    6cc6:	48 85 ff             	test   %rdi,%rdi
    6cc9:	48 89 7d 08          	mov    %rdi,0x8(%rbp)
    6ccd:	74 04                	je     6cd3 <avl_map+0xf3>
    6ccf:	48 89 6f 10          	mov    %rbp,0x10(%rdi)
    6cd3:	48 8b 7d 10          	mov    0x10(%rbp),%rdi
    6cd7:	48 89 7e 10          	mov    %rdi,0x10(%rsi)
    6cdb:	48 8b 7d 10          	mov    0x10(%rbp),%rdi
    6cdf:	48 85 ff             	test   %rdi,%rdi
    6ce2:	0f 84 f5 01 00 00    	je     6edd <avl_map+0x2fd>
    6ce8:	48 3b 2f             	cmp    (%rdi),%rbp
    6ceb:	0f 84 0c 02 00 00    	je     6efd <avl_map+0x31d>
    6cf1:	48 89 77 08          	mov    %rsi,0x8(%rdi)
    6cf5:	48 89 2e             	mov    %rbp,(%rsi)
    6cf8:	48 89 75 10          	mov    %rsi,0x10(%rbp)
    6cfc:	0f b6 71 18          	movzbl 0x18(%rcx),%esi
    6d00:	83 e6 07             	and    $0x7,%esi
    6d03:	40 80 fe 07          	cmp    $0x7,%sil
    6d07:	0f 84 b0 01 00 00    	je     6ebd <avl_map+0x2dd>
    6d0d:	80 62 18 f8          	andb   $0xf8,0x18(%rdx)
    6d11:	40 84 f6             	test   %sil,%sil
    6d14:	0f 85 ba 01 00 00    	jne    6ed4 <avl_map+0x2f4>
    6d1a:	80 65 18 f8          	andb   $0xf8,0x18(%rbp)
    6d1e:	66 90                	xchg   %ax,%ax
    6d20:	80 61 18 f8          	andb   $0xf8,0x18(%rcx)
    6d24:	e9 d1 fe ff ff       	jmpq   6bfa <avl_map+0x1a>
    6d29:	0f 1f 80 00 00 00 00 	nopl   0x0(%rax)
    6d30:	48 8b 55 00          	mov    0x0(%rbp),%rdx
    6d34:	0f b6 7a 18          	movzbl 0x18(%rdx),%edi
    6d38:	48 8b 4a 08          	mov    0x8(%rdx),%rcx
    6d3c:	83 e7 07             	and    $0x7,%edi
    6d3f:	40 80 ff 07          	cmp    $0x7,%dil
    6d43:	0f 84 a7 00 00 00    	je     6df0 <avl_map+0x210>
    6d49:	48 8b 31             	mov    (%rcx),%rsi
    6d4c:	48 85 f6             	test   %rsi,%rsi
    6d4f:	48 89 72 08          	mov    %rsi,0x8(%rdx)
    6d53:	74 04                	je     6d59 <avl_map+0x179>
    6d55:	48 89 56 10          	mov    %rdx,0x10(%rsi)
    6d59:	48 8b 72 10          	mov    0x10(%rdx),%rsi
    6d5d:	48 89 71 10          	mov    %rsi,0x10(%rcx)
    6d61:	48 8b 72 10          	mov    0x10(%rdx),%rsi
    6d65:	48 85 f6             	test   %rsi,%rsi
    6d68:	0f 84 3f 01 00 00    	je     6ead <avl_map+0x2cd>
    6d6e:	48 3b 16             	cmp    (%rsi),%rdx
    6d71:	0f 84 76 01 00 00    	je     6eed <avl_map+0x30d>
    6d77:	48 89 4e 08          	mov    %rcx,0x8(%rsi)
    6d7b:	48 89 11             	mov    %rdx,(%rcx)
    6d7e:	48 8b 75 00          	mov    0x0(%rbp),%rsi
    6d82:	48 89 4a 10          	mov    %rcx,0x10(%rdx)
    6d86:	48 8b 7e 08          	mov    0x8(%rsi),%rdi
    6d8a:	48 85 ff             	test   %rdi,%rdi
    6d8d:	48 89 7d 00          	mov    %rdi,0x0(%rbp)
    6d91:	74 04                	je     6d97 <avl_map+0x1b7>
    6d93:	48 89 6f 10          	mov    %rbp,0x10(%rdi)
    6d97:	48 8b 7d 10          	mov    0x10(%rbp),%rdi
    6d9b:	48 89 7e 10          	mov    %rdi,0x10(%rsi)
    6d9f:	48 8b 7d 10          	mov    0x10(%rbp),%rdi
    6da3:	48 85 ff             	test   %rdi,%rdi
    6da6:	0f 84 09 01 00 00    	je     6eb5 <avl_map+0x2d5>
    6dac:	48 3b 2f             	cmp    (%rdi),%rbp
    6daf:	0f 84 40 01 00 00    	je     6ef5 <avl_map+0x315>
    6db5:	48 89 77 08          	mov    %rsi,0x8(%rdi)
    6db9:	48 89 6e 08          	mov    %rbp,0x8(%rsi)
    6dbd:	48 89 75 10          	mov    %rsi,0x10(%rbp)
    6dc1:	0f b6 71 18          	movzbl 0x18(%rcx),%esi
    6dc5:	83 e6 07             	and    $0x7,%esi
    6dc8:	40 80 fe 07          	cmp    $0x7,%sil
    6dcc:	0f 84 ae 00 00 00    	je     6e80 <avl_map+0x2a0>
    6dd2:	40 84 f6             	test   %sil,%sil
    6dd5:	0f 85 c5 00 00 00    	jne    6ea0 <avl_map+0x2c0>
    6ddb:	80 62 18 f8          	andb   $0xf8,0x18(%rdx)
    6ddf:	80 65 18 f8          	andb   $0xf8,0x18(%rbp)
    6de3:	e9 38 ff ff ff       	jmpq   6d20 <avl_map+0x140>
    6de8:	0f 1f 84 00 00 00 00 	nopl   0x0(%rax,%rax,1)
    6def:	00 
    6df0:	48 85 c9             	test   %rcx,%rcx
    6df3:	48 89 4d 00          	mov    %rcx,0x0(%rbp)
    6df7:	74 08                	je     6e01 <avl_map+0x221>
    6df9:	48 89 69 10          	mov    %rbp,0x10(%rcx)
    6dfd:	48 8b 75 10          	mov    0x10(%rbp),%rsi
    6e01:	48 89 72 10          	mov    %rsi,0x10(%rdx)
    6e05:	48 8b 4d 10          	mov    0x10(%rbp),%rcx
    6e09:	48 85 c9             	test   %rcx,%rcx
    6e0c:	0f 84 fb 00 00 00    	je     6f0d <avl_map+0x32d>
    6e12:	48 3b 29             	cmp    (%rcx),%rbp
    6e15:	0f 84 02 01 00 00    	je     6f1d <avl_map+0x33d>
    6e1b:	48 89 51 08          	mov    %rdx,0x8(%rcx)
    6e1f:	48 89 6a 08          	mov    %rbp,0x8(%rdx)
    6e23:	48 89 55 10          	mov    %rdx,0x10(%rbp)
    6e27:	80 62 18 f8          	andb   $0xf8,0x18(%rdx)
    6e2b:	80 65 18 f8          	andb   $0xf8,0x18(%rbp)
    6e2f:	e9 c6 fd ff ff       	jmpq   6bfa <avl_map+0x1a>
    6e34:	0f 1f 40 00          	nopl   0x0(%rax)
    6e38:	48 85 c9             	test   %rcx,%rcx
    6e3b:	48 89 4d 08          	mov    %rcx,0x8(%rbp)
    6e3f:	74 08                	je     6e49 <avl_map+0x269>
    6e41:	48 89 69 10          	mov    %rbp,0x10(%rcx)
    6e45:	48 8b 75 10          	mov    0x10(%rbp),%rsi
    6e49:	48 89 72 10          	mov    %rsi,0x10(%rdx)
    6e4d:	48 8b 4d 10          	mov    0x10(%rbp),%rcx
    6e51:	48 85 c9             	test   %rcx,%rcx
    6e54:	0f 84 bb 00 00 00    	je     6f15 <avl_map+0x335>
    6e5a:	48 3b 29             	cmp    (%rcx),%rbp
    6e5d:	0f 84 c2 00 00 00    	je     6f25 <avl_map+0x345>
    6e63:	48 89 51 08          	mov    %rdx,0x8(%rcx)
    6e67:	48 89 2a             	mov    %rbp,(%rdx)
    6e6a:	48 89 55 10          	mov    %rdx,0x10(%rbp)
    6e6e:	80 62 18 f8          	andb   $0xf8,0x18(%rdx)
    6e72:	80 65 18 f8          	andb   $0xf8,0x18(%rbp)
    6e76:	e9 7f fd ff ff       	jmpq   6bfa <avl_map+0x1a>
    6e7b:	0f 1f 44 00 00       	nopl   0x0(%rax,%rax,1)
    6e80:	80 62 18 f8          	andb   $0xf8,0x18(%rdx)
    6e84:	0f b6 55 18          	movzbl 0x18(%rbp),%edx
    6e88:	83 e2 f8             	and    $0xfffffff8,%edx
    6e8b:	83 ca 01             	or     $0x1,%edx
    6e8e:	88 55 18             	mov    %dl,0x18(%rbp)
    6e91:	e9 8a fe ff ff       	jmpq   6d20 <avl_map+0x140>
    6e96:	66 2e 0f 1f 84 00 00 	nopw   %cs:0x0(%rax,%rax,1)
    6e9d:	00 00 00 
    6ea0:	80 4a 18 07          	orb    $0x7,0x18(%rdx)
    6ea4:	80 65 18 f8          	andb   $0xf8,0x18(%rbp)
    6ea8:	e9 73 fe ff ff       	jmpq   6d20 <avl_map+0x140>
    6ead:	48 89 0b             	mov    %rcx,(%rbx)
    6eb0:	e9 c6 fe ff ff       	jmpq   6d7b <avl_map+0x19b>
    6eb5:	48 89 33             	mov    %rsi,(%rbx)
    6eb8:	e9 fc fe ff ff       	jmpq   6db9 <avl_map+0x1d9>
    6ebd:	0f b6 72 18          	movzbl 0x18(%rdx),%esi
    6ec1:	83 e6 f8             	and    $0xfffffff8,%esi
    6ec4:	83 ce 01             	or     $0x1,%esi
    6ec7:	40 88 72 18          	mov    %sil,0x18(%rdx)
    6ecb:	80 65 18 f8          	andb   $0xf8,0x18(%rbp)
    6ecf:	e9 4c fe ff ff       	jmpq   6d20 <avl_map+0x140>
    6ed4:	80 4d 18 07          	orb    $0x7,0x18(%rbp)
    6ed8:	e9 43 fe ff ff       	jmpq   6d20 <avl_map+0x140>
    6edd:	48 89 33             	mov    %rsi,(%rbx)
    6ee0:	e9 10 fe ff ff       	jmpq   6cf5 <avl_map+0x115>
    6ee5:	48 89 0b             	mov    %rcx,(%rbx)
    6ee8:	e9 ca fd ff ff       	jmpq   6cb7 <avl_map+0xd7>
    6eed:	48 89 0e             	mov    %rcx,(%rsi)
    6ef0:	e9 86 fe ff ff       	jmpq   6d7b <avl_map+0x19b>
    6ef5:	48 89 37             	mov    %rsi,(%rdi)
    6ef8:	e9 bc fe ff ff       	jmpq   6db9 <avl_map+0x1d9>
    6efd:	48 89 37             	mov    %rsi,(%rdi)
    6f00:	e9 f0 fd ff ff       	jmpq   6cf5 <avl_map+0x115>
    6f05:	48 89 0e             	mov    %rcx,(%rsi)
    6f08:	e9 aa fd ff ff       	jmpq   6cb7 <avl_map+0xd7>
    6f0d:	48 89 13             	mov    %rdx,(%rbx)
    6f10:	e9 0a ff ff ff       	jmpq   6e1f <avl_map+0x23f>
    6f15:	48 89 13             	mov    %rdx,(%rbx)
    6f18:	e9 4a ff ff ff       	jmpq   6e67 <avl_map+0x287>
    6f1d:	48 89 11             	mov    %rdx,(%rcx)
    6f20:	e9 fa fe ff ff       	jmpq   6e1f <avl_map+0x23f>
    6f25:	48 89 11             	mov    %rdx,(%rcx)
    6f28:	e9 3a ff ff ff       	jmpq   6e67 <avl_map+0x287>
    6f2d:	0f 1f 00             	nopl   (%rax)

0000000000006f30 <avl_del>:
    6f30:	53                   	push   %rbx
    6f31:	48 89 fb             	mov    %rdi,%rbx
    6f34:	48 83 ec 10          	sub    $0x10,%rsp
    6f38:	48 8b 57 08          	mov    0x8(%rdi),%rdx
    6f3c:	48 85 d2             	test   %rdx,%rdx
    6f3f:	0f 84 f3 01 00 00    	je     7138 <avl_del+0x208>
    6f45:	48 83 3a 00          	cmpq   $0x0,(%rdx)
    6f49:	0f 84 81 01 00 00    	je     70d0 <avl_del+0x1a0>
    6f4f:	48 89 74 24 08       	mov    %rsi,0x8(%rsp)
    6f54:	e8 e7 af ff ff       	callq  1f40 <tree_successor@plt>
    6f59:	48 8b 48 08          	mov    0x8(%rax),%rcx
    6f5d:	48 8b 74 24 08       	mov    0x8(%rsp),%rsi
    6f62:	48 85 c9             	test   %rcx,%rcx
    6f65:	74 08                	je     6f6f <avl_del+0x3f>
    6f67:	48 8b 50 10          	mov    0x10(%rax),%rdx
    6f6b:	48 89 51 10          	mov    %rdx,0x10(%rcx)
    6f6f:	48 8b 50 10          	mov    0x10(%rax),%rdx
    6f73:	48 89 0a             	mov    %rcx,(%rdx)
    6f76:	48 8b 0b             	mov    (%rbx),%rcx
    6f79:	48 89 08             	mov    %rcx,(%rax)
    6f7c:	48 8b 0b             	mov    (%rbx),%rcx
    6f7f:	48 89 41 10          	mov    %rax,0x10(%rcx)
    6f83:	48 8b 4b 08          	mov    0x8(%rbx),%rcx
    6f87:	48 89 48 08          	mov    %rcx,0x8(%rax)
    6f8b:	48 8b 4b 08          	mov    0x8(%rbx),%rcx
    6f8f:	48 89 41 10          	mov    %rax,0x10(%rcx)
    6f93:	48 8b 4b 10          	mov    0x10(%rbx),%rcx
    6f97:	48 89 48 10          	mov    %rcx,0x10(%rax)
    6f9b:	48 8b 4b 10          	mov    0x10(%rbx),%rcx
    6f9f:	48 85 c9             	test   %rcx,%rcx
    6fa2:	0f 84 b0 04 00 00    	je     7458 <avl_del+0x528>
    6fa8:	48 39 19             	cmp    %rbx,(%rcx)
    6fab:	0f 84 c5 01 00 00    	je     7176 <avl_del+0x246>
    6fb1:	48 89 41 08          	mov    %rax,0x8(%rcx)
    6fb5:	0f b6 4b 18          	movzbl 0x18(%rbx),%ecx
    6fb9:	83 e1 07             	and    $0x7,%ecx
    6fbc:	89 cf                	mov    %ecx,%edi
    6fbe:	0f b6 48 18          	movzbl 0x18(%rax),%ecx
    6fc2:	83 e1 f8             	and    $0xfffffff8,%ecx
    6fc5:	09 f9                	or     %edi,%ecx
    6fc7:	88 48 18             	mov    %cl,0x18(%rax)
    6fca:	0f b6 42 18          	movzbl 0x18(%rdx),%eax
    6fce:	48 8b 4a 10          	mov    0x10(%rdx),%rcx
    6fd2:	31 ff                	xor    %edi,%edi
    6fd4:	c1 e0 05             	shl    $0x5,%eax
    6fd7:	c0 f8 05             	sar    $0x5,%al
    6fda:	45 31 c0             	xor    %r8d,%r8d
    6fdd:	eb 43                	jmp    7022 <avl_del+0xf2>
    6fdf:	90                   	nop
    6fe0:	0f b6 7a 18          	movzbl 0x18(%rdx),%edi
    6fe4:	83 c0 01             	add    $0x1,%eax
    6fe7:	83 e0 07             	and    $0x7,%eax
    6fea:	83 e7 f8             	and    $0xfffffff8,%edi
    6fed:	09 f8                	or     %edi,%eax
    6fef:	88 42 18             	mov    %al,0x18(%rdx)
    6ff2:	83 e0 07             	and    $0x7,%eax
    6ff5:	3c 01                	cmp    $0x1,%al
    6ff7:	0f 84 c6 00 00 00    	je     70c3 <avl_del+0x193>
    6ffd:	3c 02                	cmp    $0x2,%al
    6fff:	0f 84 8b 01 00 00    	je     7190 <avl_del+0x260>
    7005:	48 85 c9             	test   %rcx,%rcx
    7008:	0f 84 b5 00 00 00    	je     70c3 <avl_del+0x193>
    700e:	0f b6 41 18          	movzbl 0x18(%rcx),%eax
    7012:	48 89 ca             	mov    %rcx,%rdx
    7015:	48 8b 49 10          	mov    0x10(%rcx),%rcx
    7019:	44 89 c7             	mov    %r8d,%edi
    701c:	c1 e0 05             	shl    $0x5,%eax
    701f:	c0 f8 05             	sar    $0x5,%al
    7022:	48 85 c9             	test   %rcx,%rcx
    7025:	74 0b                	je     7032 <avl_del+0x102>
    7027:	45 31 c0             	xor    %r8d,%r8d
    702a:	48 39 51 08          	cmp    %rdx,0x8(%rcx)
    702e:	41 0f 94 c0          	sete   %r8b
    7032:	83 e0 07             	and    $0x7,%eax
    7035:	85 ff                	test   %edi,%edi
    7037:	74 a7                	je     6fe0 <avl_del+0xb0>
    7039:	0f b6 7a 18          	movzbl 0x18(%rdx),%edi
    703d:	83 c0 07             	add    $0x7,%eax
    7040:	83 e0 07             	and    $0x7,%eax
    7043:	83 e7 f8             	and    $0xfffffff8,%edi
    7046:	09 f8                	or     %edi,%eax
    7048:	88 42 18             	mov    %al,0x18(%rdx)
    704b:	83 e0 07             	and    $0x7,%eax
    704e:	3c 07                	cmp    $0x7,%al
    7050:	74 71                	je     70c3 <avl_del+0x193>
    7052:	3c 06                	cmp    $0x6,%al
    7054:	75 af                	jne    7005 <avl_del+0xd5>
    7056:	48 8b 02             	mov    (%rdx),%rax
    7059:	44 0f b6 48 18       	movzbl 0x18(%rax),%r9d
    705e:	48 8b 78 08          	mov    0x8(%rax),%rdi
    7062:	41 83 e1 07          	and    $0x7,%r9d
    7066:	41 80 f9 01          	cmp    $0x1,%r9b
    706a:	0f 84 40 02 00 00    	je     72b0 <avl_del+0x380>
    7070:	48 85 ff             	test   %rdi,%rdi
    7073:	48 89 3a             	mov    %rdi,(%rdx)
    7076:	49 89 ca             	mov    %rcx,%r10
    7079:	74 08                	je     7083 <avl_del+0x153>
    707b:	48 89 57 10          	mov    %rdx,0x10(%rdi)
    707f:	4c 8b 52 10          	mov    0x10(%rdx),%r10
    7083:	4c 89 50 10          	mov    %r10,0x10(%rax)
    7087:	48 8b 7a 10          	mov    0x10(%rdx),%rdi
    708b:	48 85 ff             	test   %rdi,%rdi
    708e:	0f 84 dc 02 00 00    	je     7370 <avl_del+0x440>
    7094:	48 3b 17             	cmp    (%rdi),%rdx
    7097:	0f 84 f3 02 00 00    	je     7390 <avl_del+0x460>
    709d:	48 89 47 08          	mov    %rax,0x8(%rdi)
    70a1:	45 84 c9             	test   %r9b,%r9b
    70a4:	48 89 50 08          	mov    %rdx,0x8(%rax)
    70a8:	48 89 42 10          	mov    %rax,0x10(%rdx)
    70ac:	0f 84 c6 03 00 00    	je     7478 <avl_del+0x548>
    70b2:	80 60 18 f8          	andb   $0xf8,0x18(%rax)
    70b6:	80 62 18 f8          	andb   $0xf8,0x18(%rdx)
    70ba:	48 85 c9             	test   %rcx,%rcx
    70bd:	0f 85 4b ff ff ff    	jne    700e <avl_del+0xde>
    70c3:	48 83 c4 10          	add    $0x10,%rsp
    70c7:	5b                   	pop    %rbx
    70c8:	c3                   	retq   
    70c9:	0f 1f 80 00 00 00 00 	nopl   0x0(%rax)
    70d0:	48 8b 07             	mov    (%rdi),%rax
    70d3:	48 89 02             	mov    %rax,(%rdx)
    70d6:	48 8b 07             	mov    (%rdi),%rax
    70d9:	48 85 c0             	test   %rax,%rax
    70dc:	74 04                	je     70e2 <avl_del+0x1b2>
    70de:	48 89 50 10          	mov    %rdx,0x10(%rax)
    70e2:	48 8b 4b 10          	mov    0x10(%rbx),%rcx
    70e6:	48 89 4a 10          	mov    %rcx,0x10(%rdx)
    70ea:	48 8b 43 10          	mov    0x10(%rbx),%rax
    70ee:	48 85 c0             	test   %rax,%rax
    70f1:	0f 84 69 03 00 00    	je     7460 <avl_del+0x530>
    70f7:	48 39 18             	cmp    %rbx,(%rax)
    70fa:	0f 84 7e 00 00 00    	je     717e <avl_del+0x24e>
    7100:	48 89 50 08          	mov    %rdx,0x8(%rax)
    7104:	48 8b 53 08          	mov    0x8(%rbx),%rdx
    7108:	48 8b 4a 10          	mov    0x10(%rdx),%rcx
    710c:	0f b6 43 18          	movzbl 0x18(%rbx),%eax
    7110:	0f b6 7a 18          	movzbl 0x18(%rdx),%edi
    7114:	c1 e0 05             	shl    $0x5,%eax
    7117:	83 e7 f8             	and    $0xfffffff8,%edi
    711a:	c0 f8 05             	sar    $0x5,%al
    711d:	41 89 c0             	mov    %eax,%r8d
    7120:	41 83 e0 07          	and    $0x7,%r8d
    7124:	44 09 c7             	or     %r8d,%edi
    7127:	40 88 7a 18          	mov    %dil,0x18(%rdx)
    712b:	bf 01 00 00 00       	mov    $0x1,%edi
    7130:	e9 a5 fe ff ff       	jmpq   6fda <avl_del+0xaa>
    7135:	0f 1f 00             	nopl   (%rax)
    7138:	48 8b 07             	mov    (%rdi),%rax
    713b:	48 8b 57 10          	mov    0x10(%rdi),%rdx
    713f:	48 85 c0             	test   %rax,%rax
    7142:	74 08                	je     714c <avl_del+0x21c>
    7144:	48 89 50 10          	mov    %rdx,0x10(%rax)
    7148:	48 8b 57 10          	mov    0x10(%rdi),%rdx
    714c:	48 85 d2             	test   %rdx,%rdx
    714f:	0f 84 1b 03 00 00    	je     7470 <avl_del+0x540>
    7155:	48 39 1a             	cmp    %rbx,(%rdx)
    7158:	74 29                	je     7183 <avl_del+0x253>
    715a:	48 89 42 08          	mov    %rax,0x8(%rdx)
    715e:	0f b6 42 18          	movzbl 0x18(%rdx),%eax
    7162:	bf 01 00 00 00       	mov    $0x1,%edi
    7167:	48 8b 4a 10          	mov    0x10(%rdx),%rcx
    716b:	c1 e0 05             	shl    $0x5,%eax
    716e:	c0 f8 05             	sar    $0x5,%al
    7171:	e9 64 fe ff ff       	jmpq   6fda <avl_del+0xaa>
    7176:	48 89 01             	mov    %rax,(%rcx)
    7179:	e9 37 fe ff ff       	jmpq   6fb5 <avl_del+0x85>
    717e:	48 89 10             	mov    %rdx,(%rax)
    7181:	eb 89                	jmp    710c <avl_del+0x1dc>
    7183:	48 89 02             	mov    %rax,(%rdx)
    7186:	e9 3f fe ff ff       	jmpq   6fca <avl_del+0x9a>
    718b:	0f 1f 44 00 00       	nopl   0x0(%rax,%rax,1)
    7190:	48 8b 42 08          	mov    0x8(%rdx),%rax
    7194:	44 0f b6 48 18       	movzbl 0x18(%rax),%r9d
    7199:	48 8b 38             	mov    (%rax),%rdi
    719c:	41 83 e1 07          	and    $0x7,%r9d
    71a0:	41 80 f9 07          	cmp    $0x7,%r9b
    71a4:	74 5a                	je     7200 <avl_del+0x2d0>
    71a6:	48 85 ff             	test   %rdi,%rdi
    71a9:	48 89 7a 08          	mov    %rdi,0x8(%rdx)
    71ad:	49 89 ca             	mov    %rcx,%r10
    71b0:	74 08                	je     71ba <avl_del+0x28a>
    71b2:	48 89 57 10          	mov    %rdx,0x10(%rdi)
    71b6:	4c 8b 52 10          	mov    0x10(%rdx),%r10
    71ba:	4c 89 50 10          	mov    %r10,0x10(%rax)
    71be:	48 8b 7a 10          	mov    0x10(%rdx),%rdi
    71c2:	48 85 ff             	test   %rdi,%rdi
    71c5:	0f 84 95 01 00 00    	je     7360 <avl_del+0x430>
    71cb:	48 3b 17             	cmp    (%rdi),%rdx
    71ce:	0f 84 ac 01 00 00    	je     7380 <avl_del+0x450>
    71d4:	48 89 47 08          	mov    %rax,0x8(%rdi)
    71d8:	45 84 c9             	test   %r9b,%r9b
    71db:	48 89 10             	mov    %rdx,(%rax)
    71de:	48 89 42 10          	mov    %rax,0x10(%rdx)
    71e2:	0f 85 ca fe ff ff    	jne    70b2 <avl_del+0x182>
    71e8:	80 48 18 07          	orb    $0x7,0x18(%rax)
    71ec:	0f b6 42 18          	movzbl 0x18(%rdx),%eax
    71f0:	83 e0 f8             	and    $0xfffffff8,%eax
    71f3:	83 c8 01             	or     $0x1,%eax
    71f6:	88 42 18             	mov    %al,0x18(%rdx)
    71f9:	e9 c5 fe ff ff       	jmpq   70c3 <avl_del+0x193>
    71fe:	66 90                	xchg   %ax,%ax
    7200:	4c 8b 4f 08          	mov    0x8(%rdi),%r9
    7204:	4d 85 c9             	test   %r9,%r9
    7207:	4c 89 08             	mov    %r9,(%rax)
    720a:	74 04                	je     7210 <avl_del+0x2e0>
    720c:	49 89 41 10          	mov    %rax,0x10(%r9)
    7210:	4c 8b 48 10          	mov    0x10(%rax),%r9
    7214:	4c 89 4f 10          	mov    %r9,0x10(%rdi)
    7218:	4c 8b 48 10          	mov    0x10(%rax),%r9
    721c:	4d 85 c9             	test   %r9,%r9
    721f:	0f 84 eb 01 00 00    	je     7410 <avl_del+0x4e0>
    7225:	49 3b 01             	cmp    (%r9),%rax
    7228:	0f 84 f2 01 00 00    	je     7420 <avl_del+0x4f0>
    722e:	49 89 79 08          	mov    %rdi,0x8(%r9)
    7232:	48 89 47 08          	mov    %rax,0x8(%rdi)
    7236:	4c 8b 4a 08          	mov    0x8(%rdx),%r9
    723a:	48 89 78 10          	mov    %rdi,0x10(%rax)
    723e:	4d 8b 11             	mov    (%r9),%r10
    7241:	4d 85 d2             	test   %r10,%r10
    7244:	4c 89 52 08          	mov    %r10,0x8(%rdx)
    7248:	74 04                	je     724e <avl_del+0x31e>
    724a:	49 89 52 10          	mov    %rdx,0x10(%r10)
    724e:	4c 8b 52 10          	mov    0x10(%rdx),%r10
    7252:	4d 89 51 10          	mov    %r10,0x10(%r9)
    7256:	4c 8b 52 10          	mov    0x10(%rdx),%r10
    725a:	4d 85 d2             	test   %r10,%r10
    725d:	0f 84 7d 01 00 00    	je     73e0 <avl_del+0x4b0>
    7263:	49 3b 12             	cmp    (%r10),%rdx
    7266:	0f 84 e4 01 00 00    	je     7450 <avl_del+0x520>
    726c:	4d 89 4a 08          	mov    %r9,0x8(%r10)
    7270:	49 89 11             	mov    %rdx,(%r9)
    7273:	4c 89 4a 10          	mov    %r9,0x10(%rdx)
    7277:	44 0f b6 4f 18       	movzbl 0x18(%rdi),%r9d
    727c:	41 83 e1 07          	and    $0x7,%r9d
    7280:	41 80 f9 07          	cmp    $0x7,%r9b
    7284:	0f 84 36 01 00 00    	je     73c0 <avl_del+0x490>
    728a:	80 60 18 f8          	andb   $0xf8,0x18(%rax)
    728e:	45 84 c9             	test   %r9b,%r9b
    7291:	0f 84 bd 00 00 00    	je     7354 <avl_del+0x424>
    7297:	80 4a 18 07          	orb    $0x7,0x18(%rdx)
    729b:	0f 1f 44 00 00       	nopl   0x0(%rax,%rax,1)
    72a0:	80 67 18 f8          	andb   $0xf8,0x18(%rdi)
    72a4:	e9 5c fd ff ff       	jmpq   7005 <avl_del+0xd5>
    72a9:	0f 1f 80 00 00 00 00 	nopl   0x0(%rax)
    72b0:	4c 8b 0f             	mov    (%rdi),%r9
    72b3:	4d 85 c9             	test   %r9,%r9
    72b6:	4c 89 48 08          	mov    %r9,0x8(%rax)
    72ba:	74 04                	je     72c0 <avl_del+0x390>
    72bc:	49 89 41 10          	mov    %rax,0x10(%r9)
    72c0:	4c 8b 48 10          	mov    0x10(%rax),%r9
    72c4:	4c 89 4f 10          	mov    %r9,0x10(%rdi)
    72c8:	4c 8b 48 10          	mov    0x10(%rax),%r9
    72cc:	4d 85 c9             	test   %r9,%r9
    72cf:	0f 84 2b 01 00 00    	je     7400 <avl_del+0x4d0>
    72d5:	49 3b 01             	cmp    (%r9),%rax
    72d8:	0f 84 62 01 00 00    	je     7440 <avl_del+0x510>
    72de:	49 89 79 08          	mov    %rdi,0x8(%r9)
    72e2:	48 89 07             	mov    %rax,(%rdi)
    72e5:	4c 8b 0a             	mov    (%rdx),%r9
    72e8:	48 89 78 10          	mov    %rdi,0x10(%rax)
    72ec:	4d 8b 51 08          	mov    0x8(%r9),%r10
    72f0:	4d 85 d2             	test   %r10,%r10
    72f3:	4c 89 12             	mov    %r10,(%rdx)
    72f6:	74 04                	je     72fc <avl_del+0x3cc>
    72f8:	49 89 52 10          	mov    %rdx,0x10(%r10)
    72fc:	4c 8b 52 10          	mov    0x10(%rdx),%r10
    7300:	4d 89 51 10          	mov    %r10,0x10(%r9)
    7304:	4c 8b 52 10          	mov    0x10(%rdx),%r10
    7308:	4d 85 d2             	test   %r10,%r10
    730b:	0f 84 df 00 00 00    	je     73f0 <avl_del+0x4c0>
    7311:	49 3b 12             	cmp    (%r10),%rdx
    7314:	0f 84 16 01 00 00    	je     7430 <avl_del+0x500>
    731a:	4d 89 4a 08          	mov    %r9,0x8(%r10)
    731e:	49 89 51 08          	mov    %rdx,0x8(%r9)
    7322:	4c 89 4a 10          	mov    %r9,0x10(%rdx)
    7326:	44 0f b6 4f 18       	movzbl 0x18(%rdi),%r9d
    732b:	41 83 e1 07          	and    $0x7,%r9d
    732f:	41 80 f9 07          	cmp    $0x7,%r9b
    7333:	74 6b                	je     73a0 <avl_del+0x470>
    7335:	45 84 c9             	test   %r9b,%r9b
    7338:	75 16                	jne    7350 <avl_del+0x420>
    733a:	80 60 18 f8          	andb   $0xf8,0x18(%rax)
    733e:	80 62 18 f8          	andb   $0xf8,0x18(%rdx)
    7342:	e9 59 ff ff ff       	jmpq   72a0 <avl_del+0x370>
    7347:	66 0f 1f 84 00 00 00 	nopw   0x0(%rax,%rax,1)
    734e:	00 00 
    7350:	80 48 18 07          	orb    $0x7,0x18(%rax)
    7354:	80 62 18 f8          	andb   $0xf8,0x18(%rdx)
    7358:	e9 43 ff ff ff       	jmpq   72a0 <avl_del+0x370>
    735d:	0f 1f 00             	nopl   (%rax)
    7360:	48 89 06             	mov    %rax,(%rsi)
    7363:	e9 70 fe ff ff       	jmpq   71d8 <avl_del+0x2a8>
    7368:	0f 1f 84 00 00 00 00 	nopl   0x0(%rax,%rax,1)
    736f:	00 
    7370:	48 89 06             	mov    %rax,(%rsi)
    7373:	e9 29 fd ff ff       	jmpq   70a1 <avl_del+0x171>
    7378:	0f 1f 84 00 00 00 00 	nopl   0x0(%rax,%rax,1)
    737f:	00 
    7380:	48 89 07             	mov    %rax,(%rdi)
    7383:	e9 50 fe ff ff       	jmpq   71d8 <avl_del+0x2a8>
    7388:	0f 1f 84 00 00 00 00 	nopl   0x0(%rax,%rax,1)
    738f:	00 
    7390:	48 89 07             	mov    %rax,(%rdi)
    7393:	e9 09 fd ff ff       	jmpq   70a1 <avl_del+0x171>
    7398:	0f 1f 84 00 00 00 00 	nopl   0x0(%rax,%rax,1)
    739f:	00 
    73a0:	80 60 18 f8          	andb   $0xf8,0x18(%rax)
    73a4:	0f b6 42 18          	movzbl 0x18(%rdx),%eax
    73a8:	83 e0 f8             	and    $0xfffffff8,%eax
    73ab:	83 c8 01             	or     $0x1,%eax
    73ae:	88 42 18             	mov    %al,0x18(%rdx)
    73b1:	e9 ea fe ff ff       	jmpq   72a0 <avl_del+0x370>
    73b6:	66 2e 0f 1f 84 00 00 	nopw   %cs:0x0(%rax,%rax,1)
    73bd:	00 00 00 
    73c0:	44 0f b6 48 18       	movzbl 0x18(%rax),%r9d
    73c5:	41 83 e1 f8          	and    $0xfffffff8,%r9d
    73c9:	41 83 c9 01          	or     $0x1,%r9d
    73cd:	44 88 48 18          	mov    %r9b,0x18(%rax)
    73d1:	80 62 18 f8          	andb   $0xf8,0x18(%rdx)
    73d5:	e9 c6 fe ff ff       	jmpq   72a0 <avl_del+0x370>
    73da:	66 0f 1f 44 00 00    	nopw   0x0(%rax,%rax,1)
    73e0:	4c 89 0e             	mov    %r9,(%rsi)
    73e3:	e9 88 fe ff ff       	jmpq   7270 <avl_del+0x340>
    73e8:	0f 1f 84 00 00 00 00 	nopl   0x0(%rax,%rax,1)
    73ef:	00 
    73f0:	4c 89 0e             	mov    %r9,(%rsi)
    73f3:	e9 26 ff ff ff       	jmpq   731e <avl_del+0x3ee>
    73f8:	0f 1f 84 00 00 00 00 	nopl   0x0(%rax,%rax,1)
    73ff:	00 
    7400:	48 89 3e             	mov    %rdi,(%rsi)
    7403:	e9 da fe ff ff       	jmpq   72e2 <avl_del+0x3b2>
    7408:	0f 1f 84 00 00 00 00 	nopl   0x0(%rax,%rax,1)
    740f:	00 
    7410:	48 89 3e             	mov    %rdi,(%rsi)
    7413:	e9 1a fe ff ff       	jmpq   7232 <avl_del+0x302>
    7418:	0f 1f 84 00 00 00 00 	nopl   0x0(%rax,%rax,1)
    741f:	00 
    7420:	49 89 39             	mov    %rdi,(%r9)
    7423:	e9 0a fe ff ff       	jmpq   7232 <avl_del+0x302>
    7428:	0f 1f 84 00 00 00 00 	nopl   0x0(%rax,%rax,1)
    742f:	00 
    7430:	4d 89 0a             	mov    %r9,(%r10)
    7433:	e9 e6 fe ff ff       	jmpq   731e <avl_del+0x3ee>
    7438:	0f 1f 84 00 00 00 00 	nopl   0x0(%rax,%rax,1)
    743f:	00 
    7440:	49 89 39             	mov    %rdi,(%r9)
    7443:	e9 9a fe ff ff       	jmpq   72e2 <avl_del+0x3b2>
    7448:	0f 1f 84 00 00 00 00 	nopl   0x0(%rax,%rax,1)
    744f:	00 
    7450:	4d 89 0a             	mov    %r9,(%r10)
    7453:	e9 18 fe ff ff       	jmpq   7270 <avl_del+0x340>
    7458:	48 89 06             	mov    %rax,(%rsi)
    745b:	e9 55 fb ff ff       	jmpq   6fb5 <avl_del+0x85>
    7460:	48 89 16             	mov    %rdx,(%rsi)
    7463:	48 8b 53 08          	mov    0x8(%rbx),%rdx
    7467:	48 8b 4a 10          	mov    0x10(%rdx),%rcx
    746b:	e9 9c fc ff ff       	jmpq   710c <avl_del+0x1dc>
    7470:	48 89 06             	mov    %rax,(%rsi)
    7473:	e9 4b fc ff ff       	jmpq   70c3 <avl_del+0x193>
    7478:	0f b6 48 18          	movzbl 0x18(%rax),%ecx
    747c:	83 e1 f8             	and    $0xfffffff8,%ecx
    747f:	83 c9 01             	or     $0x1,%ecx
    7482:	88 48 18             	mov    %cl,0x18(%rax)
    7485:	80 4a 18 07          	orb    $0x7,0x18(%rdx)
    7489:	e9 35 fc ff ff       	jmpq   70c3 <avl_del+0x193>

Disassembly of section .fini:

0000000000007490 <_fini>:
    7490:	48 83 ec 08          	sub    $0x8,%rsp
    7494:	48 83 c4 08          	add    $0x8,%rsp
    7498:	c3                   	retq   
